EXPORTS 
	??_R0?AUResourceBuffer@olc@@@8 	 DATA
	??_R0?AV?$_Iosb@H@std@@@8 	 DATA
	??_R0?AV?$basic_filebuf@DU?$char_traits@D@std@@@std@@@8 	 DATA
	??_R0?AV?$basic_ifstream@DU?$char_traits@D@std@@@std@@@8 	 DATA
	??_R0?AV?$basic_ios@DU?$char_traits@D@std@@@std@@@8 	 DATA
	??_R0?AV?$basic_iostream@DU?$char_traits@D@std@@@std@@@8 	 DATA
	??_R0?AV?$basic_istream@DU?$char_traits@D@std@@@std@@@8 	 DATA
	??_R0?AV?$basic_ofstream@DU?$char_traits@D@std@@@std@@@8 	 DATA
	??_R0?AV?$basic_ostream@DU?$char_traits@D@std@@@std@@@8 	 DATA
	??_R0?AV?$basic_streambuf@DU?$char_traits@D@std@@@std@@@8 	 DATA
	??_R0?AV?$basic_stringbuf@DU?$char_traits@D@std@@V?$allocator@D@2@@std@@@8 	 DATA
	??_R0?AV?$basic_stringstream@DU?$char_traits@D@std@@V?$allocator@D@2@@std@@@8 	 DATA
	??_R0?AVBitmap@Gdiplus@@@8 	 DATA
	??_R0?AVDecal@olc@@@8 	 DATA
	??_R0?AVGdiplusBase@Gdiplus@@@8 	 DATA
	??_R0?AVImage@Gdiplus@@@8 	 DATA
	??_R0?AVImageLoader@olc@@@8 	 DATA
	??_R0?AVImageLoader_GDIPlus@olc@@@8 	 DATA
	??_R0?AVMipsDisplay@@@8 	 DATA
	??_R0?AVPGEX@olc@@@8 	 DATA
	??_R0?AVPixelGameEngine@olc@@@8 	 DATA
	??_R0?AVPlatform@olc@@@8 	 DATA
	??_R0?AVPlatform_Windows@olc@@@8 	 DATA
	??_R0?AVRenderer@olc@@@8 	 DATA
	??_R0?AVRenderer_OGL10@olc@@@8 	 DATA
	??_R0?AVResourcePack@olc@@@8 	 DATA
	??_R0?AV_Generic_error_category@std@@@8 	 DATA
	??_R0?AV_System_error@std@@@8 	 DATA
	??_R0?AV_System_error_category@std@@@8 	 DATA
	??_R0?AVbad_alloc@std@@@8 	 DATA
	??_R0?AVbad_array_new_length@std@@@8 	 DATA
	??_R0?AVbad_cast@std@@@8 	 DATA
	??_R0?AVerror_category@std@@@8 	 DATA
	??_R0?AVexception@std@@@8 	 DATA
	??_R0?AVfilesystem_error@filesystem@std@@@8 	 DATA
	??_R0?AVios_base@std@@@8 	 DATA
	??_R0?AVruntime_error@std@@@8 	 DATA
	??_R0?AVsystem_error@std@@@8 	 DATA
	?_Psave@?$_Facetptr@V?$codecvt@DDU_Mbstatet@@@std@@@std@@2PEBVfacet@locale@2@EB 	 DATA
	?_Static@?1???$_Immortalize_memcpy_image@V_Generic_error_category@std@@@std@@YAAEBV_Generic_error_category@1@XZ@4U?$_Constexpr_immortalize_impl@V_Generic_error_category@std@@@1@A 	 DATA
	?_Static@?1???$_Immortalize_memcpy_image@V_System_error_category@std@@@std@@YAAEBV_System_error_category@1@XZ@4U?$_Constexpr_immortalize_impl@V_System_error_category@std@@@1@A 	 DATA
	?_Stinit@?1??_Init@?$basic_filebuf@DU?$char_traits@D@std@@@std@@IEAAXPEAU_iobuf@@W4_Initfl@23@@Z@4U_Mbstatet@@A 	 DATA
	?bAtomActive@PixelGameEngine@olc@@0U?$atomic@_N@std@@A 	 DATA
	?display@@3V?$unique_ptr@VMipsDisplay@@U?$default_delete@VMipsDisplay@@@std@@@std@@A 	 DATA
	?loader@Sprite@olc@@2V?$unique_ptr@VImageLoader@olc@@U?$default_delete@VImageLoader@olc@@@std@@@std@@A 	 DATA
	?mapKeys@olc@@3V?$map@_KW4Key@olc@@U?$less@_K@std@@V?$allocator@U?$pair@$$CB_KW4Key@olc@@@std@@@4@@std@@A 	 DATA
	?pge@PGEX@olc@@1PEAVPixelGameEngine@2@EA 	 DATA
	?ptrPGE@Platform@olc@@2PEAVPixelGameEngine@2@EA 	 DATA
	?ptrPGE@Renderer@olc@@2PEAVPixelGameEngine@2@EA 	 DATA
	?vWinPos@Platform_Windows@olc@@0U?$v_2d@H@2@A 	 DATA
	?vWinSize@Platform_Windows@olc@@0U?$v_2d@H@2@A 	 DATA
	_Avx2WmemEnabledWeakValue 	 DATA
	??$?0$$CBW4Key@olc@@V?$tuple@V?$basic_string@DU?$char_traits@D@std@@V?$allocator@D@2@@std@@V12@V12@V12@@std@@$0A@@?$pair@$$CBW4Key@olc@@V?$tuple@V?$basic_string@DU?$char_traits@D@std@@V?$allocator@D@2@@std@@V12@V12@V12@@std@@@std@@QEAA@AEBW4Key@olc@@AEBV?$tuple@V?$basic_string@DU?$char_traits@D@std@@V?$allocator@D@2@@std@@V12@V12@V12@@1@@Z
	??$?0$$QEA_K$$Z$$V@?$pair@$$CB_KW4Key@olc@@@std@@QEAA@Upiecewise_construct_t@1@V?$tuple@$$QEA_K@1@V?$tuple@$$V@1@@Z
	??$?0$$V@?$_Compressed_pair@U?$default_delete@VDecal@olc@@@std@@PEAVDecal@olc@@$00@std@@QEAA@U_Zero_then_variadic_args_t@1@@Z
	??$?0$$V@?$_Compressed_pair@U?$default_delete@VSprite@olc@@@std@@PEAVSprite@olc@@$00@std@@QEAA@U_Zero_then_variadic_args_t@1@@Z
	??$?0$$V@?$_Compressed_pair@V?$allocator@D@std@@V?$_String_val@U?$_Simple_types@D@std@@@2@$00@std@@QEAA@U_Zero_then_variadic_args_t@1@@Z
	??$?0$$V@?$_Compressed_pair@V?$allocator@D@std@@V?$_Vector_val@U?$_Simple_types@D@std@@@2@$00@std@@QEAA@U_Zero_then_variadic_args_t@1@@Z
	??$?0$$V@?$_Compressed_pair@V?$allocator@H@std@@V?$_Vector_val@U?$_Simple_types@H@std@@@2@$00@std@@QEAA@U_Zero_then_variadic_args_t@1@@Z
	??$?0$$V@?$_Compressed_pair@V?$allocator@M@std@@V?$_Vector_val@U?$_Simple_types@M@std@@@2@$00@std@@QEAA@U_Zero_then_variadic_args_t@1@@Z
	??$?0$$V@?$_Compressed_pair@V?$allocator@PEAVPGEX@olc@@@std@@V?$_Vector_val@U?$_Simple_types@PEAVPGEX@olc@@@std@@@2@$00@std@@QEAA@U_Zero_then_variadic_args_t@1@@Z
	??$?0$$V@?$_Compressed_pair@V?$allocator@U?$_List_node@V?$basic_string@DU?$char_traits@D@std@@V?$allocator@D@2@@std@@PEAX@std@@@std@@V?$_List_val@U?$_List_simple_types@V?$basic_string@DU?$char_traits@D@std@@V?$allocator@D@2@@std@@@std@@@2@$00@std@@QEAA@U_Zero_then_variadic_args_t@1@@Z
	??$?0$$V@?$_Compressed_pair@V?$allocator@U?$_Tree_node@U?$pair@$$CBV?$basic_string@DU?$char_traits@D@std@@V?$allocator@D@2@@std@@UsResourceFile@ResourcePack@olc@@@std@@PEAX@std@@@std@@V?$_Tree_val@U?$_Tree_simple_types@U?$pair@$$CBV?$basic_string@DU?$char_traits@D@std@@V?$allocator@D@2@@std@@UsResourceFile@ResourcePack@olc@@@std@@@std@@@2@$00@std@@QEAA@U_Zero_then_variadic_args_t@1@@Z
	??$?0$$V@?$_Compressed_pair@V?$allocator@U?$_Tree_node@U?$pair@$$CB_KW4Key@olc@@@std@@PEAX@std@@@std@@V?$_Tree_val@U?$_Tree_simple_types@U?$pair@$$CB_KW4Key@olc@@@std@@@std@@@2@$00@std@@QEAA@U_Zero_then_variadic_args_t@1@@Z
	??$?0$$V@?$_Compressed_pair@V?$allocator@U?$v_2d@H@olc@@@std@@V?$_Vector_val@U?$_Simple_types@U?$v_2d@H@olc@@@std@@@2@$00@std@@QEAA@U_Zero_then_variadic_args_t@1@@Z
	??$?0$$V@?$_Compressed_pair@V?$allocator@U?$v_2d@M@olc@@@std@@V?$_Vector_val@U?$_Simple_types@U?$v_2d@M@olc@@@std@@@2@$00@std@@QEAA@U_Zero_then_variadic_args_t@1@@Z
	??$?0$$V@?$_Compressed_pair@V?$allocator@UDecalInstance@olc@@@std@@V?$_Vector_val@U?$_Simple_types@UDecalInstance@olc@@@std@@@2@$00@std@@QEAA@U_Zero_then_variadic_args_t@1@@Z
	??$?0$$V@?$_Compressed_pair@V?$allocator@UGPUTask@olc@@@std@@V?$_Vector_val@U?$_Simple_types@UGPUTask@olc@@@std@@@2@$00@std@@QEAA@U_Zero_then_variadic_args_t@1@@Z
	??$?0$$V@?$_Compressed_pair@V?$allocator@ULayerDesc@olc@@@std@@V?$_Vector_val@U?$_Simple_types@ULayerDesc@olc@@@std@@@2@$00@std@@QEAA@U_Zero_then_variadic_args_t@1@@Z
	??$?0$$V@?$_Compressed_pair@V?$allocator@UPixel@olc@@@std@@V?$_Vector_val@U?$_Simple_types@UPixel@olc@@@std@@@2@$00@std@@QEAA@U_Zero_then_variadic_args_t@1@@Z
	??$?0$$V@?$_Compressed_pair@V?$allocator@UVertex@GPUTask@olc@@@std@@V?$_Vector_val@U?$_Simple_types@UVertex@GPUTask@olc@@@std@@@2@$00@std@@QEAA@U_Zero_then_variadic_args_t@1@@Z
	??$?0$$V@?$_Compressed_pair@V?$allocator@V?$basic_string@DU?$char_traits@D@std@@V?$allocator@D@2@@std@@@std@@V?$_Vector_val@U?$_Simple_types@V?$basic_string@DU?$char_traits@D@std@@V?$allocator@D@2@@std@@@std@@@2@$00@std@@QEAA@U_Zero_then_variadic_args_t@1@@Z
	??$?0$$V@?$_Compressed_pair@V?$allocator@_W@std@@V?$_String_val@U?$_Simple_types@_W@std@@@2@$00@std@@QEAA@U_Zero_then_variadic_args_t@1@@Z
	??$?0AEAPEAV?$tuple@P8PixelGameEngine@olc@@EAAXXZPEAV12@@std@@@?$_Compressed_pair@U?$default_delete@V?$tuple@P8PixelGameEngine@olc@@EAAXXZPEAV12@@std@@@std@@PEAV?$tuple@P8PixelGameEngine@olc@@EAAXXZPEAV12@@2@$00@std@@QEAA@U_Zero_then_variadic_args_t@1@AEAPEAV?$tuple@P8PixelGameEngine@olc@@EAAXXZPEAV12@@1@@Z
	??$?0AEAPEAVDecal@olc@@@?$_Compressed_pair@U?$default_delete@VDecal@olc@@@std@@PEAVDecal@olc@@$00@std@@QEAA@U_Zero_then_variadic_args_t@1@AEAPEAVDecal@olc@@@Z
	??$?0AEAPEAVImageLoader_GDIPlus@olc@@@?$_Compressed_pair@U?$default_delete@VImageLoader_GDIPlus@olc@@@std@@PEAVImageLoader_GDIPlus@olc@@$00@std@@QEAA@U_Zero_then_variadic_args_t@1@AEAPEAVImageLoader_GDIPlus@olc@@@Z
	??$?0AEAPEAVMipsDisplay@@@?$_Compressed_pair@U?$default_delete@VMipsDisplay@@@std@@PEAVMipsDisplay@@$00@std@@QEAA@U_Zero_then_variadic_args_t@1@AEAPEAVMipsDisplay@@@Z
	??$?0AEAPEAVPlatform_Windows@olc@@@?$_Compressed_pair@U?$default_delete@VPlatform_Windows@olc@@@std@@PEAVPlatform_Windows@olc@@$00@std@@QEAA@U_Zero_then_variadic_args_t@1@AEAPEAVPlatform_Windows@olc@@@Z
	??$?0AEAPEAVRenderer_OGL10@olc@@@?$_Compressed_pair@U?$default_delete@VRenderer_OGL10@olc@@@std@@PEAVRenderer_OGL10@olc@@$00@std@@QEAA@U_Zero_then_variadic_args_t@1@AEAPEAVRenderer_OGL10@olc@@@Z
	??$?0AEAPEAVSprite@olc@@@?$_Compressed_pair@U?$default_delete@VSprite@olc@@@std@@PEAVSprite@olc@@$00@std@@QEAA@U_Zero_then_variadic_args_t@1@AEAPEAVSprite@olc@@@Z
	??$?0AEAPEAV_Facet_base@std@@@?$_Compressed_pair@U?$default_delete@V_Facet_base@std@@@std@@PEAV_Facet_base@2@$00@std@@QEAA@U_Zero_then_variadic_args_t@1@AEAPEAV_Facet_base@1@@Z
	??$?0AEAV?$allocator@D@std@@$$V@?$_Compressed_pair@V?$allocator@D@std@@V?$_String_val@U?$_Simple_types@D@std@@@2@$00@std@@QEAA@U_One_then_variadic_args_t@1@AEAV?$allocator@D@1@@Z
	??$?0AEAY00$$CBD@?$_Tuple_val@V?$basic_string@DU?$char_traits@D@std@@V?$allocator@D@2@@std@@@std@@QEAA@AEAY00$$CBD@Z
	??$?0AEAY01$$CBD@?$_Tuple_val@V?$basic_string@DU?$char_traits@D@std@@V?$allocator@D@2@@std@@@std@@QEAA@AEAY01$$CBD@Z
	??$?0AEAY01$$CBDAEAY01$$CBDAEAY00$$CBDAEAY00$$CBD$0A@@?$tuple@V?$basic_string@DU?$char_traits@D@std@@V?$allocator@D@2@@std@@V12@V12@V12@@std@@QEAA@AEAY01$$CBD0AEAY00$$CBD1@Z
	??$?0AEAY01$$CBDAEAY01$$CBDAEAY01$$CBDAEAY01$$CBD$0A@@?$tuple@V?$basic_string@DU?$char_traits@D@std@@V?$allocator@D@2@@std@@V12@V12@V12@@std@@QEAA@AEAY01$$CBD000@Z
	??$?0AEAY01$$CBDAEAY02$$CBDAEAY01$$CBDAEAY01$$CBD$0A@@?$tuple@V?$basic_string@DU?$char_traits@D@std@@V?$allocator@D@2@@std@@V12@V12@V12@@std@@QEAA@AEAY01$$CBDAEAY02$$CBD00@Z
	??$?0AEAY02$$CBD@?$_Tuple_val@V?$basic_string@DU?$char_traits@D@std@@V?$allocator@D@2@@std@@@std@@QEAA@AEAY02$$CBD@Z
	??$?0AEAY02$$CBDAEAY02$$CBDAEAY02$$CBDAEAY02$$CBD$0A@@?$tuple@V?$basic_string@DU?$char_traits@D@std@@V?$allocator@D@2@@std@@V12@V12@V12@@std@@QEAA@AEAY02$$CBD000@Z
	??$?0AEBQEAU?$_Tree_node@U?$pair@$$CBV?$basic_string@DU?$char_traits@D@std@@V?$allocator@D@2@@std@@UsResourceFile@ResourcePack@olc@@@std@@PEAX@std@@_N$0A@@?$pair@PEAU?$_Tree_node@U?$pair@$$CBV?$basic_string@DU?$char_traits@D@std@@V?$allocator@D@2@@std@@UsResourceFile@ResourcePack@olc@@@std@@PEAX@std@@_N@std@@QEAA@AEBQEAU?$_Tree_node@U?$pair@$$CBV?$basic_string@DU?$char_traits@D@std@@V?$allocator@D@2@@std@@UsResourceFile@ResourcePack@olc@@@std@@PEAX@1@$$QEA_N@Z
	??$?0AEBQEAU?$_Tree_node@U?$pair@$$CB_KW4Key@olc@@@std@@PEAX@std@@_N$0A@@?$pair@PEAU?$_Tree_node@U?$pair@$$CB_KW4Key@olc@@@std@@PEAX@std@@_N@std@@QEAA@AEBQEAU?$_Tree_node@U?$pair@$$CB_KW4Key@olc@@@std@@PEAX@1@$$QEA_N@Z
	??$?0AEBU?$less@V?$basic_string@DU?$char_traits@D@std@@V?$allocator@D@2@@std@@@std@@U_Zero_then_variadic_args_t@1@@?$_Compressed_pair@U?$less@V?$basic_string@DU?$char_traits@D@std@@V?$allocator@D@2@@std@@@std@@V?$_Compressed_pair@V?$allocator@U?$_Tree_node@U?$pair@$$CBV?$basic_string@DU?$char_traits@D@std@@V?$allocator@D@2@@std@@UsResourceFile@ResourcePack@olc@@@std@@PEAX@std@@@std@@V?$_Tree_val@U?$_Tree_simple_types@U?$pair@$$CBV?$basic_string@DU?$char_traits@D@std@@V?$allocator@D@2@@std@@UsResourceFile@ResourcePack@olc@@@std@@@std@@@2@$00@2@$00@std@@QEAA@U_One_then_variadic_args_t@1@AEBU?$less@V?$basic_string@DU?$char_traits@D@std@@V?$allocator@D@2@@std@@@1@$$QEAU_Zero_then_variadic_args_t@1@@Z
	??$?0AEBU?$less@_K@std@@U_Zero_then_variadic_args_t@1@@?$_Compressed_pair@U?$less@_K@std@@V?$_Compressed_pair@V?$allocator@U?$_Tree_node@U?$pair@$$CB_KW4Key@olc@@@std@@PEAX@std@@@std@@V?$_Tree_val@U?$_Tree_simple_types@U?$pair@$$CB_KW4Key@olc@@@std@@@std@@@2@$00@2@$00@std@@QEAA@U_One_then_variadic_args_t@1@AEBU?$less@_K@1@$$QEAU_Zero_then_variadic_args_t@1@@Z
	??$?0AEBU?$pair@$$CBW4Key@olc@@V?$tuple@V?$basic_string@DU?$char_traits@D@std@@V?$allocator@D@2@@std@@V12@V12@V12@@std@@@std@@@?$_List_node_emplace_op2@V?$allocator@U?$_List_node@U?$pair@$$CBW4Key@olc@@V?$tuple@V?$basic_string@DU?$char_traits@D@std@@V?$allocator@D@2@@std@@V12@V12@V12@@std@@@std@@PEAX@std@@@std@@@std@@QEAA@AEAV?$allocator@U?$_List_node@U?$pair@$$CBW4Key@olc@@V?$tuple@V?$basic_string@DU?$char_traits@D@std@@V?$allocator@D@2@@std@@V12@V12@V12@@std@@@std@@PEAX@std@@@1@AEBU?$pair@$$CBW4Key@olc@@V?$tuple@V?$basic_string@DU?$char_traits@D@std@@V?$allocator@D@2@@std@@V12@V12@V12@@std@@@1@@Z
	??$?0AEBUpiecewise_construct_t@std@@V?$tuple@$$QEA_K@1@V?$tuple@$$V@1@@?$_Tree_temp_node@V?$allocator@U?$_Tree_node@U?$pair@$$CB_KW4Key@olc@@@std@@PEAX@std@@@std@@@std@@QEAA@AEAV?$allocator@U?$_Tree_node@U?$pair@$$CB_KW4Key@olc@@@std@@PEAX@std@@@1@PEAU?$_Tree_node@U?$pair@$$CB_KW4Key@olc@@@std@@PEAX@1@AEBUpiecewise_construct_t@1@$$QEAV?$tuple@$$QEA_K@1@$$QEAV?$tuple@$$V@1@@Z
	??$?0AEBUpiecewise_construct_t@std@@V?$tuple@AEBV?$basic_string@DU?$char_traits@D@std@@V?$allocator@D@2@@std@@@1@V?$tuple@$$V@1@@?$_Tree_temp_node@V?$allocator@U?$_Tree_node@U?$pair@$$CBV?$basic_string@DU?$char_traits@D@std@@V?$allocator@D@2@@std@@UsResourceFile@ResourcePack@olc@@@std@@PEAX@std@@@std@@@std@@QEAA@AEAV?$allocator@U?$_Tree_node@U?$pair@$$CBV?$basic_string@DU?$char_traits@D@std@@V?$allocator@D@2@@std@@UsResourceFile@ResourcePack@olc@@@std@@PEAX@std@@@1@PEAU?$_Tree_node@U?$pair@$$CBV?$basic_string@DU?$char_traits@D@std@@V?$allocator@D@2@@std@@UsResourceFile@ResourcePack@olc@@@std@@PEAX@1@AEBUpiecewise_construct_t@1@$$QEAV?$tuple@AEBV?$basic_string@DU?$char_traits@D@std@@V?$allocator@D@2@@std@@@1@$$QEAV?$tuple@$$V@1@@Z
	??$?0AEBV?$allocator@D@std@@$$V@?$_Compressed_pair@V?$allocator@D@std@@V?$_String_val@U?$_Simple_types@D@std@@@2@$00@std@@QEAA@U_One_then_variadic_args_t@1@AEBV?$allocator@D@1@@Z
	??$?0AEBV?$allocator@D@std@@$$V@?$_Compressed_pair@V?$allocator@D@std@@V?$_Vector_val@U?$_Simple_types@D@std@@@2@$00@std@@QEAA@U_One_then_variadic_args_t@1@AEBV?$allocator@D@1@@Z
	??$?0AEBV?$allocator@E@std@@$$V@?$_Compressed_pair@V?$allocator@E@std@@V?$_Vector_val@U?$_Simple_types@E@std@@@2@$00@std@@QEAA@U_One_then_variadic_args_t@1@AEBV?$allocator@E@1@@Z
	??$?0AEBV?$allocator@PEAX@std@@$$V@?$_Compressed_pair@V?$allocator@PEAX@std@@V?$_Vector_val@U?$_Simple_types@PEAX@std@@@2@$00@std@@QEAA@U_One_then_variadic_args_t@1@AEBV?$allocator@PEAX@1@@Z
	??$?0AEBV?$allocator@U?$pair@$$CBW4Key@olc@@V?$tuple@V?$basic_string@DU?$char_traits@D@std@@V?$allocator@D@2@@std@@V12@V12@V12@@std@@@std@@@std@@$$V@?$_Compressed_pair@V?$allocator@U?$_List_node@U?$pair@$$CBW4Key@olc@@V?$tuple@V?$basic_string@DU?$char_traits@D@std@@V?$allocator@D@2@@std@@V12@V12@V12@@std@@@std@@PEAX@std@@@std@@V?$_List_val@U?$_List_simple_types@U?$pair@$$CBW4Key@olc@@V?$tuple@V?$basic_string@DU?$char_traits@D@std@@V?$allocator@D@2@@std@@V12@V12@V12@@std@@@std@@@std@@@2@$00@std@@QEAA@U_One_then_variadic_args_t@1@AEBV?$allocator@U?$pair@$$CBW4Key@olc@@V?$tuple@V?$basic_string@DU?$char_traits@D@std@@V?$allocator@D@2@@std@@V12@V12@V12@@std@@@std@@@1@@Z
	??$?0AEBV?$allocator@U?$pair@$$CBW4Key@olc@@V?$tuple@V?$basic_string@DU?$char_traits@D@std@@V?$allocator@D@2@@std@@V12@V12@V12@@std@@@std@@@std@@$$V@?$_Compressed_pair@V?$allocator@V?$_List_unchecked_iterator@V?$_List_val@U?$_List_simple_types@U?$pair@$$CBW4Key@olc@@V?$tuple@V?$basic_string@DU?$char_traits@D@std@@V?$allocator@D@2@@std@@V12@V12@V12@@std@@@std@@@std@@@std@@@std@@@std@@V?$_Vector_val@U?$_Simple_types@V?$_List_unchecked_iterator@V?$_List_val@U?$_List_simple_types@U?$pair@$$CBW4Key@olc@@V?$tuple@V?$basic_string@DU?$char_traits@D@std@@V?$allocator@D@2@@std@@V12@V12@V12@@std@@@std@@@std@@@std@@@std@@@std@@@2@$00@std@@QEAA@U_One_then_variadic_args_t@1@AEBV?$allocator@U?$pair@$$CBW4Key@olc@@V?$tuple@V?$basic_string@DU?$char_traits@D@std@@V?$allocator@D@2@@std@@V12@V12@V12@@std@@@std@@@1@@Z
	??$?0AEBV?$allocator@U?$pair@$$CBW4Key@olc@@V?$tuple@V?$basic_string@DU?$char_traits@D@std@@V?$allocator@D@2@@std@@V12@V12@V12@@std@@@std@@@std@@$0A@@?$_Hash_vec@V?$allocator@V?$_List_unchecked_iterator@V?$_List_val@U?$_List_simple_types@U?$pair@$$CBW4Key@olc@@V?$tuple@V?$basic_string@DU?$char_traits@D@std@@V?$allocator@D@2@@std@@V12@V12@V12@@std@@@std@@@std@@@std@@@std@@@std@@@std@@QEAA@AEBV?$allocator@U?$pair@$$CBW4Key@olc@@V?$tuple@V?$basic_string@DU?$char_traits@D@std@@V?$allocator@D@2@@std@@V12@V12@V12@@std@@@std@@@1@@Z
	??$?0AEBV?$allocator@U?$v_2d@M@olc@@@std@@$$V@?$_Compressed_pair@V?$allocator@U?$v_2d@M@olc@@@std@@V?$_Vector_val@U?$_Simple_types@U?$v_2d@M@olc@@@std@@@2@$00@std@@QEAA@U_One_then_variadic_args_t@1@AEBV?$allocator@U?$v_2d@M@olc@@@1@@Z
	??$?0AEBV?$allocator@UPixel@olc@@@std@@$$V@?$_Compressed_pair@V?$allocator@UPixel@olc@@@std@@V?$_Vector_val@U?$_Simple_types@UPixel@olc@@@std@@@2@$00@std@@QEAA@U_One_then_variadic_args_t@1@AEBV?$allocator@UPixel@olc@@@1@@Z
	??$?0AEBV?$basic_string@DU?$char_traits@D@std@@V?$allocator@D@2@@std@@$$Z$$V@?$pair@$$CBV?$basic_string@DU?$char_traits@D@std@@V?$allocator@D@2@@std@@UsResourceFile@ResourcePack@olc@@@std@@QEAA@Upiecewise_construct_t@1@V?$tuple@AEBV?$basic_string@DU?$char_traits@D@std@@V?$allocator@D@2@@std@@@1@V?$tuple@$$V@1@@Z
	??$?0AEBV?$basic_string@DU?$char_traits@D@std@@V?$allocator@D@2@@std@@$0A@@?$tuple@AEBV?$basic_string@DU?$char_traits@D@std@@V?$allocator@D@2@@std@@@std@@QEAA@AEBV?$basic_string@DU?$char_traits@D@std@@V?$allocator@D@2@@1@@Z
	??$?0AEBV?$basic_string@DU?$char_traits@D@std@@V?$allocator@D@2@@std@@@?$_List_node_emplace_op2@V?$allocator@U?$_List_node@V?$basic_string@DU?$char_traits@D@std@@V?$allocator@D@2@@std@@PEAX@std@@@std@@@std@@QEAA@AEAV?$allocator@U?$_List_node@V?$basic_string@DU?$char_traits@D@std@@V?$allocator@D@2@@std@@PEAX@std@@@1@AEBV?$basic_string@DU?$char_traits@D@std@@V?$allocator@D@2@@1@@Z
	??$?0AEBV?$basic_string@DU?$char_traits@D@std@@V?$allocator@D@2@@std@@@?$_Tuple_val@AEBV?$basic_string@DU?$char_traits@D@std@@V?$allocator@D@2@@std@@@std@@QEAA@AEBV?$basic_string@DU?$char_traits@D@std@@V?$allocator@D@2@@1@@Z
	??$?0D@?$allocator@U_Container_proxy@std@@@std@@QEAA@AEBV?$allocator@D@1@@Z
	??$?0E@?$allocator@U_Container_proxy@std@@@std@@QEAA@AEBV?$allocator@E@1@@Z
	??$?0H$0A@@?$duration@_JU?$ratio@$00$0DOI@@std@@@chrono@std@@QEAA@AEBH@Z
	??$?0H@?$allocator@U_Container_proxy@std@@@std@@QEAA@AEBV?$allocator@H@1@@Z
	??$?0M$0A@@?$duration@MU?$ratio@$00$00@std@@@chrono@std@@QEAA@AEBM@Z
	??$?0M@?$_Compressed_pair@U?$equal_to@W4Key@olc@@@std@@M$00@std@@QEAA@U_Zero_then_variadic_args_t@1@$$QEAM@Z
	??$?0M@?$allocator@U_Container_proxy@std@@@std@@QEAA@AEBV?$allocator@M@1@@Z
	??$?0P8PixelGameEngine@olc@@EAAXXZ@?$_Tuple_val@P8PixelGameEngine@olc@@EAAXXZ@std@@QEAA@$$QEAP8PixelGameEngine@olc@@EAAXXZ@Z
	??$?0P8PixelGameEngine@olc@@EAAXXZPEAV01@$0A@@?$tuple@P8PixelGameEngine@olc@@EAAXXZPEAV12@@std@@QEAA@$$QEAP8PixelGameEngine@olc@@EAAXXZ$$QEAPEAV23@@Z
	??$?0P8PixelGameEngine@olc@@EAAXXZPEAV01@$0A@@thread@std@@QEAA@$$QEAP8PixelGameEngine@olc@@EAAXXZ$$QEAPEAV23@@Z
	??$?0PEAD$0A@@?$basic_string@DU?$char_traits@D@std@@V?$allocator@D@2@@std@@QEAA@PEAD0AEBV?$allocator@D@1@@Z
	??$?0PEAU?$_Tree_node@U?$pair@$$CBV?$basic_string@DU?$char_traits@D@std@@V?$allocator@D@2@@std@@UsResourceFile@ResourcePack@olc@@@std@@PEAX@std@@_N$0A@@?$pair@PEAU?$_Tree_node@U?$pair@$$CBV?$basic_string@DU?$char_traits@D@std@@V?$allocator@D@2@@std@@UsResourceFile@ResourcePack@olc@@@std@@PEAX@std@@_N@std@@QEAA@$$QEAPEAU?$_Tree_node@U?$pair@$$CBV?$basic_string@DU?$char_traits@D@std@@V?$allocator@D@2@@std@@UsResourceFile@ResourcePack@olc@@@std@@PEAX@1@$$QEA_N@Z
	??$?0PEAU?$_Tree_node@U?$pair@$$CB_KW4Key@olc@@@std@@PEAX@std@@_N$0A@@?$pair@PEAU?$_Tree_node@U?$pair@$$CB_KW4Key@olc@@@std@@PEAX@std@@_N@std@@QEAA@$$QEAPEAU?$_Tree_node@U?$pair@$$CB_KW4Key@olc@@@std@@PEAX@1@$$QEA_N@Z
	??$?0PEAVPGEX@olc@@@?$allocator@U_Container_proxy@std@@@std@@QEAA@AEBV?$allocator@PEAVPGEX@olc@@@1@@Z
	??$?0PEAVPixelGameEngine@olc@@@?$_Tuple_val@PEAVPixelGameEngine@olc@@@std@@QEAA@$$QEAPEAVPixelGameEngine@olc@@@Z
	??$?0PEAX@?$allocator@U_Container_proxy@std@@@std@@QEAA@AEBV?$allocator@PEAX@1@@Z
	??$?0U?$_List_node@U?$pair@$$CBW4Key@olc@@V?$tuple@V?$basic_string@DU?$char_traits@D@std@@V?$allocator@D@2@@std@@V12@V12@V12@@std@@@std@@PEAX@std@@@?$allocator@U_Container_proxy@std@@@std@@QEAA@AEBV?$allocator@U?$_List_node@U?$pair@$$CBW4Key@olc@@V?$tuple@V?$basic_string@DU?$char_traits@D@std@@V?$allocator@D@2@@std@@V12@V12@V12@@std@@@std@@PEAX@std@@@1@@Z
	??$?0U?$_List_node@V?$basic_string@DU?$char_traits@D@std@@V?$allocator@D@2@@std@@PEAX@std@@@?$allocator@U_Container_proxy@std@@@std@@QEAA@AEBV?$allocator@U?$_List_node@V?$basic_string@DU?$char_traits@D@std@@V?$allocator@D@2@@std@@PEAX@std@@@1@@Z
	??$?0U?$_Tree_node@U?$pair@$$CBV?$basic_string@DU?$char_traits@D@std@@V?$allocator@D@2@@std@@UsResourceFile@ResourcePack@olc@@@std@@PEAX@std@@@?$allocator@U_Container_proxy@std@@@std@@QEAA@AEBV?$allocator@U?$_Tree_node@U?$pair@$$CBV?$basic_string@DU?$char_traits@D@std@@V?$allocator@D@2@@std@@UsResourceFile@ResourcePack@olc@@@std@@PEAX@std@@@1@@Z
	??$?0U?$_Tree_node@U?$pair@$$CB_KW4Key@olc@@@std@@PEAX@std@@@?$allocator@U_Container_proxy@std@@@std@@QEAA@AEBV?$allocator@U?$_Tree_node@U?$pair@$$CB_KW4Key@olc@@@std@@PEAX@std@@@1@@Z
	??$?0U?$default_delete@V?$tuple@P8PixelGameEngine@olc@@EAAXXZPEAV12@@std@@@std@@$0A@@?$unique_ptr@V?$tuple@P8PixelGameEngine@olc@@EAAXXZPEAV12@@std@@U?$default_delete@V?$tuple@P8PixelGameEngine@olc@@EAAXXZPEAV12@@std@@@2@@std@@QEAA@PEAV?$tuple@P8PixelGameEngine@olc@@EAAXXZPEAV12@@1@@Z
	??$?0U?$default_delete@VDecal@olc@@@std@@$0A@@?$unique_ptr@VDecal@olc@@U?$default_delete@VDecal@olc@@@std@@@std@@QEAA@$$QEAV01@@Z
	??$?0U?$default_delete@VDecal@olc@@@std@@$0A@@?$unique_ptr@VDecal@olc@@U?$default_delete@VDecal@olc@@@std@@@std@@QEAA@$$T@Z
	??$?0U?$default_delete@VDecal@olc@@@std@@$0A@@?$unique_ptr@VDecal@olc@@U?$default_delete@VDecal@olc@@@std@@@std@@QEAA@PEAVDecal@olc@@@Z
	??$?0U?$default_delete@VDecal@olc@@@std@@PEAVDecal@olc@@@?$_Compressed_pair@U?$default_delete@VDecal@olc@@@std@@PEAVDecal@olc@@$00@std@@QEAA@U_One_then_variadic_args_t@1@$$QEAU?$default_delete@VDecal@olc@@@1@$$QEAPEAVDecal@olc@@@Z
	??$?0U?$default_delete@VImageLoader_GDIPlus@olc@@@std@@$0A@@?$unique_ptr@VImageLoader_GDIPlus@olc@@U?$default_delete@VImageLoader_GDIPlus@olc@@@std@@@std@@QEAA@PEAVImageLoader_GDIPlus@olc@@@Z
	??$?0U?$default_delete@VMipsDisplay@@@std@@$0A@@?$unique_ptr@VMipsDisplay@@U?$default_delete@VMipsDisplay@@@std@@@std@@QEAA@PEAVMipsDisplay@@@Z
	??$?0U?$default_delete@VPlatform_Windows@olc@@@std@@$0A@@?$unique_ptr@VPlatform_Windows@olc@@U?$default_delete@VPlatform_Windows@olc@@@std@@@std@@QEAA@PEAVPlatform_Windows@olc@@@Z
	??$?0U?$default_delete@VRenderer_OGL10@olc@@@std@@$0A@@?$unique_ptr@VRenderer_OGL10@olc@@U?$default_delete@VRenderer_OGL10@olc@@@std@@@std@@QEAA@PEAVRenderer_OGL10@olc@@@Z
	??$?0U?$default_delete@VSprite@olc@@@std@@$0A@@?$unique_ptr@VSprite@olc@@U?$default_delete@VSprite@olc@@@std@@@std@@QEAA@$$QEAV01@@Z
	??$?0U?$default_delete@VSprite@olc@@@std@@$0A@@?$unique_ptr@VSprite@olc@@U?$default_delete@VSprite@olc@@@std@@@std@@QEAA@$$T@Z
	??$?0U?$default_delete@VSprite@olc@@@std@@$0A@@?$unique_ptr@VSprite@olc@@U?$default_delete@VSprite@olc@@@std@@@std@@QEAA@PEAVSprite@olc@@@Z
	??$?0U?$default_delete@VSprite@olc@@@std@@PEAVSprite@olc@@@?$_Compressed_pair@U?$default_delete@VSprite@olc@@@std@@PEAVSprite@olc@@$00@std@@QEAA@U_One_then_variadic_args_t@1@$$QEAU?$default_delete@VSprite@olc@@@1@$$QEAPEAVSprite@olc@@@Z
	??$?0U?$default_delete@V_Facet_base@std@@@std@@$0A@@?$unique_ptr@V_Facet_base@std@@U?$default_delete@V_Facet_base@std@@@2@@std@@QEAA@PEAV_Facet_base@1@@Z
	??$?0U?$pair@$$CBW4Key@olc@@V?$tuple@V?$basic_string@DU?$char_traits@D@std@@V?$allocator@D@2@@std@@V12@V12@V12@@std@@@std@@@?$allocator@U?$_List_node@U?$pair@$$CBW4Key@olc@@V?$tuple@V?$basic_string@DU?$char_traits@D@std@@V?$allocator@D@2@@std@@V12@V12@V12@@std@@@std@@PEAX@std@@@std@@QEAA@AEBV?$allocator@U?$pair@$$CBW4Key@olc@@V?$tuple@V?$basic_string@DU?$char_traits@D@std@@V?$allocator@D@2@@std@@V12@V12@V12@@std@@@std@@@1@@Z
	??$?0U?$pair@$$CBW4Key@olc@@V?$tuple@V?$basic_string@DU?$char_traits@D@std@@V?$allocator@D@2@@std@@V12@V12@V12@@std@@@std@@@?$allocator@V?$_List_unchecked_iterator@V?$_List_val@U?$_List_simple_types@U?$pair@$$CBW4Key@olc@@V?$tuple@V?$basic_string@DU?$char_traits@D@std@@V?$allocator@D@2@@std@@V12@V12@V12@@std@@@std@@@std@@@std@@@std@@@std@@QEAA@AEBV?$allocator@U?$pair@$$CBW4Key@olc@@V?$tuple@V?$basic_string@DU?$char_traits@D@std@@V?$allocator@D@2@@std@@V12@V12@V12@@std@@@std@@@1@@Z
	??$?0U?$v_2d@H@olc@@@?$allocator@U_Container_proxy@std@@@std@@QEAA@AEBV?$allocator@U?$v_2d@H@olc@@@1@@Z
	??$?0U?$v_2d@M@olc@@@?$allocator@U_Container_proxy@std@@@std@@QEAA@AEBV?$allocator@U?$v_2d@M@olc@@@1@@Z
	??$?0UDecalInstance@olc@@@?$allocator@U_Container_proxy@std@@@std@@QEAA@AEBV?$allocator@UDecalInstance@olc@@@1@@Z
	??$?0UGPUTask@olc@@@?$allocator@U_Container_proxy@std@@@std@@QEAA@AEBV?$allocator@UGPUTask@olc@@@1@@Z
	??$?0ULayerDesc@olc@@@?$allocator@U_Container_proxy@std@@@std@@QEAA@AEBV?$allocator@ULayerDesc@olc@@@1@@Z
	??$?0UPixel@olc@@@?$allocator@U_Container_proxy@std@@@std@@QEAA@AEBV?$allocator@UPixel@olc@@@1@@Z
	??$?0UVertex@GPUTask@olc@@@?$allocator@U_Container_proxy@std@@@std@@QEAA@AEBV?$allocator@UVertex@GPUTask@olc@@@1@@Z
	??$?0U_Exact_args_t@std@@$0A@@?$tuple@$$V@std@@QEAA@U_Exact_args_t@1@@Z
	??$?0U_Exact_args_t@std@@AEAY00$$CBD$$V$0A@@?$tuple@V?$basic_string@DU?$char_traits@D@std@@V?$allocator@D@2@@std@@@std@@QEAA@U_Exact_args_t@1@AEAY00$$CBD@Z
	??$?0U_Exact_args_t@std@@AEAY00$$CBDAEAY00$$CBD$0A@@?$tuple@V?$basic_string@DU?$char_traits@D@std@@V?$allocator@D@2@@std@@V12@@std@@QEAA@U_Exact_args_t@1@AEAY00$$CBD1@Z
	??$?0U_Exact_args_t@std@@AEAY01$$CBD$$V$0A@@?$tuple@V?$basic_string@DU?$char_traits@D@std@@V?$allocator@D@2@@std@@@std@@QEAA@U_Exact_args_t@1@AEAY01$$CBD@Z
	??$?0U_Exact_args_t@std@@AEAY01$$CBDAEAY00$$CBDAEAY00$$CBD$0A@@?$tuple@V?$basic_string@DU?$char_traits@D@std@@V?$allocator@D@2@@std@@V12@V12@@std@@QEAA@U_Exact_args_t@1@AEAY01$$CBDAEAY00$$CBD2@Z
	??$?0U_Exact_args_t@std@@AEAY01$$CBDAEAY01$$CBD$0A@@?$tuple@V?$basic_string@DU?$char_traits@D@std@@V?$allocator@D@2@@std@@V12@@std@@QEAA@U_Exact_args_t@1@AEAY01$$CBD1@Z
	??$?0U_Exact_args_t@std@@AEAY01$$CBDAEAY01$$CBDAEAY00$$CBDAEAY00$$CBD$0A@@?$tuple@V?$basic_string@DU?$char_traits@D@std@@V?$allocator@D@2@@std@@V12@V12@V12@@std@@QEAA@U_Exact_args_t@1@AEAY01$$CBD1AEAY00$$CBD2@Z
	??$?0U_Exact_args_t@std@@AEAY01$$CBDAEAY01$$CBDAEAY01$$CBD$0A@@?$tuple@V?$basic_string@DU?$char_traits@D@std@@V?$allocator@D@2@@std@@V12@V12@@std@@QEAA@U_Exact_args_t@1@AEAY01$$CBD11@Z
	??$?0U_Exact_args_t@std@@AEAY01$$CBDAEAY01$$CBDAEAY01$$CBDAEAY01$$CBD$0A@@?$tuple@V?$basic_string@DU?$char_traits@D@std@@V?$allocator@D@2@@std@@V12@V12@V12@@std@@QEAA@U_Exact_args_t@1@AEAY01$$CBD111@Z
	??$?0U_Exact_args_t@std@@AEAY01$$CBDAEAY02$$CBDAEAY01$$CBDAEAY01$$CBD$0A@@?$tuple@V?$basic_string@DU?$char_traits@D@std@@V?$allocator@D@2@@std@@V12@V12@V12@@std@@QEAA@U_Exact_args_t@1@AEAY01$$CBDAEAY02$$CBD11@Z
	??$?0U_Exact_args_t@std@@AEAY02$$CBD$$V$0A@@?$tuple@V?$basic_string@DU?$char_traits@D@std@@V?$allocator@D@2@@std@@@std@@QEAA@U_Exact_args_t@1@AEAY02$$CBD@Z
	??$?0U_Exact_args_t@std@@AEAY02$$CBDAEAY01$$CBDAEAY01$$CBD$0A@@?$tuple@V?$basic_string@DU?$char_traits@D@std@@V?$allocator@D@2@@std@@V12@V12@@std@@QEAA@U_Exact_args_t@1@AEAY02$$CBDAEAY01$$CBD2@Z
	??$?0U_Exact_args_t@std@@AEAY02$$CBDAEAY02$$CBD$0A@@?$tuple@V?$basic_string@DU?$char_traits@D@std@@V?$allocator@D@2@@std@@V12@@std@@QEAA@U_Exact_args_t@1@AEAY02$$CBD1@Z
	??$?0U_Exact_args_t@std@@AEAY02$$CBDAEAY02$$CBDAEAY02$$CBD$0A@@?$tuple@V?$basic_string@DU?$char_traits@D@std@@V?$allocator@D@2@@std@@V12@V12@@std@@QEAA@U_Exact_args_t@1@AEAY02$$CBD11@Z
	??$?0U_Exact_args_t@std@@AEAY02$$CBDAEAY02$$CBDAEAY02$$CBDAEAY02$$CBD$0A@@?$tuple@V?$basic_string@DU?$char_traits@D@std@@V?$allocator@D@2@@std@@V12@V12@V12@@std@@QEAA@U_Exact_args_t@1@AEAY02$$CBD111@Z
	??$?0U_Exact_args_t@std@@AEBV?$basic_string@DU?$char_traits@D@std@@V?$allocator@D@2@@1@$$V$0A@@?$tuple@AEBV?$basic_string@DU?$char_traits@D@std@@V?$allocator@D@2@@std@@@std@@QEAA@U_Exact_args_t@1@AEBV?$basic_string@DU?$char_traits@D@std@@V?$allocator@D@2@@1@@Z
	??$?0U_Exact_args_t@std@@P8PixelGameEngine@olc@@EAAXXZPEAV23@$0A@@?$tuple@P8PixelGameEngine@olc@@EAAXXZPEAV12@@std@@QEAA@U_Exact_args_t@1@$$QEAP8PixelGameEngine@olc@@EAAXXZ$$QEAPEAV34@@Z
	??$?0U_Exact_args_t@std@@PEAVPixelGameEngine@olc@@$$V$0A@@?$tuple@PEAVPixelGameEngine@olc@@@std@@QEAA@U_Exact_args_t@1@$$QEAPEAVPixelGameEngine@olc@@@Z
	??$?0U_Exact_args_t@std@@_K$$V$0A@@?$tuple@$$QEA_K@std@@QEAA@U_Exact_args_t@1@$$QEA_K@Z
	??$?0U_Zero_then_variadic_args_t@std@@M@?$_Compressed_pair@U?$hash@W4Key@olc@@@std@@V?$_Compressed_pair@U?$equal_to@W4Key@olc@@@std@@M$00@2@$00@std@@QEAA@U_Zero_then_variadic_args_t@1@$$QEAU21@$$QEAM@Z
	??$?0V?$_Array_const_iterator@U?$v_2d@M@olc@@$03@std@@$0A@@?$vector@U?$v_2d@M@olc@@V?$allocator@U?$v_2d@M@olc@@@std@@@std@@QEAA@V?$_Array_const_iterator@U?$v_2d@M@olc@@$03@1@0AEBV?$allocator@U?$v_2d@M@olc@@@1@@Z
	??$?0V?$_List_iterator@V?$_List_val@U?$_List_simple_types@U?$pair@$$CBW4Key@olc@@V?$tuple@V?$basic_string@DU?$char_traits@D@std@@V?$allocator@D@2@@std@@V12@V12@V12@@std@@@std@@@std@@@std@@@std@@_N$0A@@?$pair@V?$_List_iterator@V?$_List_val@U?$_List_simple_types@U?$pair@$$CBW4Key@olc@@V?$tuple@V?$basic_string@DU?$char_traits@D@std@@V?$allocator@D@2@@std@@V12@V12@V12@@std@@@std@@@std@@@std@@@std@@_N@std@@QEAA@$$QEAV?$_List_iterator@V?$_List_val@U?$_List_simple_types@U?$pair@$$CBW4Key@olc@@V?$tuple@V?$basic_string@DU?$char_traits@D@std@@V?$allocator@D@2@@std@@V12@V12@V12@@std@@@std@@@std@@@std@@@1@$$QEA_N@Z
	??$?0V?$_List_unchecked_iterator@V?$_List_val@U?$_List_simple_types@U?$pair@$$CBW4Key@olc@@V?$tuple@V?$basic_string@DU?$char_traits@D@std@@V?$allocator@D@2@@std@@V12@V12@V12@@std@@@std@@@std@@@std@@@std@@@?$allocator@U_Container_proxy@std@@@std@@QEAA@AEBV?$allocator@V?$_List_unchecked_iterator@V?$_List_val@U?$_List_simple_types@U?$pair@$$CBW4Key@olc@@V?$tuple@V?$basic_string@DU?$char_traits@D@std@@V?$allocator@D@2@@std@@V12@V12@V12@@std@@@std@@@std@@@std@@@std@@@1@@Z
	??$?0V?$allocator@D@std@@$$V@?$_Compressed_pair@V?$allocator@D@std@@V?$_String_val@U?$_Simple_types@D@std@@@2@$00@std@@QEAA@U_One_then_variadic_args_t@1@$$QEAV?$allocator@D@1@@Z
	??$?0V?$allocator@D@std@@$$V@?$_Compressed_pair@V?$allocator@D@std@@V?$_Vector_val@U?$_Simple_types@D@std@@@2@$00@std@@QEAA@U_One_then_variadic_args_t@1@$$QEAV?$allocator@D@1@@Z
	??$?0V?$allocator@D@std@@PEADPEADPEAD@?$_Compressed_pair@V?$allocator@D@std@@V?$_Vector_val@U?$_Simple_types@D@std@@@2@$00@std@@QEAA@U_One_then_variadic_args_t@1@$$QEAV?$allocator@D@1@$$QEAPEAD22@Z
	??$?0V?$allocator@M@std@@$$V@?$_Compressed_pair@V?$allocator@M@std@@V?$_Vector_val@U?$_Simple_types@M@std@@@2@$00@std@@QEAA@U_One_then_variadic_args_t@1@$$QEAV?$allocator@M@1@@Z
	??$?0V?$allocator@M@std@@PEAMPEAMPEAM@?$_Compressed_pair@V?$allocator@M@std@@V?$_Vector_val@U?$_Simple_types@M@std@@@2@$00@std@@QEAA@U_One_then_variadic_args_t@1@$$QEAV?$allocator@M@1@$$QEAPEAM22@Z
	??$?0V?$allocator@U?$v_2d@M@olc@@@std@@$$V@?$_Compressed_pair@V?$allocator@U?$v_2d@M@olc@@@std@@V?$_Vector_val@U?$_Simple_types@U?$v_2d@M@olc@@@std@@@2@$00@std@@QEAA@U_One_then_variadic_args_t@1@$$QEAV?$allocator@U?$v_2d@M@olc@@@1@@Z
	??$?0V?$allocator@U?$v_2d@M@olc@@@std@@PEAU?$v_2d@M@olc@@PEAU23@PEAU23@@?$_Compressed_pair@V?$allocator@U?$v_2d@M@olc@@@std@@V?$_Vector_val@U?$_Simple_types@U?$v_2d@M@olc@@@std@@@2@$00@std@@QEAA@U_One_then_variadic_args_t@1@$$QEAV?$allocator@U?$v_2d@M@olc@@@1@$$QEAPEAU?$v_2d@M@olc@@22@Z
	??$?0V?$allocator@UDecalInstance@olc@@@std@@PEAUDecalInstance@olc@@PEAU23@PEAU23@@?$_Compressed_pair@V?$allocator@UDecalInstance@olc@@@std@@V?$_Vector_val@U?$_Simple_types@UDecalInstance@olc@@@std@@@2@$00@std@@QEAA@U_One_then_variadic_args_t@1@$$QEAV?$allocator@UDecalInstance@olc@@@1@$$QEAPEAUDecalInstance@olc@@22@Z
	??$?0V?$allocator@UGPUTask@olc@@@std@@PEAUGPUTask@olc@@PEAU23@PEAU23@@?$_Compressed_pair@V?$allocator@UGPUTask@olc@@@std@@V?$_Vector_val@U?$_Simple_types@UGPUTask@olc@@@std@@@2@$00@std@@QEAA@U_One_then_variadic_args_t@1@$$QEAV?$allocator@UGPUTask@olc@@@1@$$QEAPEAUGPUTask@olc@@22@Z
	??$?0V?$allocator@UPixel@olc@@@std@@$$V@?$_Compressed_pair@V?$allocator@UPixel@olc@@@std@@V?$_Vector_val@U?$_Simple_types@UPixel@olc@@@std@@@2@$00@std@@QEAA@U_One_then_variadic_args_t@1@$$QEAV?$allocator@UPixel@olc@@@1@@Z
	??$?0V?$allocator@UPixel@olc@@@std@@$0A@@?$vector@UPixel@olc@@V?$allocator@UPixel@olc@@@std@@@std@@QEAA@_KAEBUPixel@olc@@AEBV?$allocator@UPixel@olc@@@1@@Z
	??$?0V?$allocator@UPixel@olc@@@std@@PEAUPixel@olc@@PEAU23@PEAU23@@?$_Compressed_pair@V?$allocator@UPixel@olc@@@std@@V?$_Vector_val@U?$_Simple_types@UPixel@olc@@@std@@@2@$00@std@@QEAA@U_One_then_variadic_args_t@1@$$QEAV?$allocator@UPixel@olc@@@1@$$QEAPEAUPixel@olc@@22@Z
	??$?0V?$allocator@UVertex@GPUTask@olc@@@std@@$$V@?$_Compressed_pair@V?$allocator@UVertex@GPUTask@olc@@@std@@V?$_Vector_val@U?$_Simple_types@UVertex@GPUTask@olc@@@std@@@2@$00@std@@QEAA@U_One_then_variadic_args_t@1@$$QEAV?$allocator@UVertex@GPUTask@olc@@@1@@Z
	??$?0V?$allocator@UVertex@GPUTask@olc@@@std@@PEAUVertex@GPUTask@olc@@PEAU234@PEAU234@@?$_Compressed_pair@V?$allocator@UVertex@GPUTask@olc@@@std@@V?$_Vector_val@U?$_Simple_types@UVertex@GPUTask@olc@@@std@@@2@$00@std@@QEAA@U_One_then_variadic_args_t@1@$$QEAV?$allocator@UVertex@GPUTask@olc@@@1@$$QEAPEAUVertex@GPUTask@olc@@22@Z
	??$?0V?$allocator@_W@std@@$$V@?$_Compressed_pair@V?$allocator@_W@std@@V?$_String_val@U?$_Simple_types@_W@std@@@2@$00@std@@QEAA@U_One_then_variadic_args_t@1@$$QEAV?$allocator@_W@1@@Z
	??$?0V?$basic_string@DU?$char_traits@D@std@@V?$allocator@D@2@@std@@$0A@@path@filesystem@std@@QEAA@AEBV?$basic_string@DU?$char_traits@D@std@@V?$allocator@D@2@@2@W4format@012@@Z
	??$?0V?$basic_string@DU?$char_traits@D@std@@V?$allocator@D@2@@std@@@?$allocator@U_Container_proxy@std@@@std@@QEAA@AEBV?$allocator@V?$basic_string@DU?$char_traits@D@std@@V?$allocator@D@2@@std@@@1@@Z
	??$?0V?$tuple@$$QEA_K@std@@V?$tuple@$$V@1@$0A@$$Z$S@?$pair@$$CB_KW4Key@olc@@@std@@AEAA@AEAV?$tuple@$$QEA_K@1@AEAV?$tuple@$$V@1@U?$integer_sequence@_K$0A@@1@U?$integer_sequence@_K$S@1@@Z
	??$?0V?$tuple@AEBV?$basic_string@DU?$char_traits@D@std@@V?$allocator@D@2@@std@@@std@@V?$tuple@$$V@1@$0A@$$Z$S@?$pair@$$CBV?$basic_string@DU?$char_traits@D@std@@V?$allocator@D@2@@std@@UsResourceFile@ResourcePack@olc@@@std@@AEAA@AEAV?$tuple@AEBV?$basic_string@DU?$char_traits@D@std@@V?$allocator@D@2@@std@@@1@AEAV?$tuple@$$V@1@U?$integer_sequence@_K$0A@@1@U?$integer_sequence@_K$S@1@@Z
	??$?0VImageLoader_GDIPlus@olc@@$0A@@?$default_delete@VImageLoader@olc@@@std@@QEAA@AEBU?$default_delete@VImageLoader_GDIPlus@olc@@@1@@Z
	??$?0VPlatform_Windows@olc@@$0A@@?$default_delete@VPlatform@olc@@@std@@QEAA@AEBU?$default_delete@VPlatform_Windows@olc@@@1@@Z
	??$?0VRenderer_OGL10@olc@@$0A@@?$default_delete@VRenderer@olc@@@std@@QEAA@AEBU?$default_delete@VRenderer_OGL10@olc@@@1@@Z
	??$?0_J$0A@@?$duration@_JU?$ratio@$00$0DLJKMKAA@@std@@@chrono@std@@QEAA@AEB_J@Z
	??$?0_J$0A@@?$duration@_JU?$ratio@$00$0DOI@@std@@@chrono@std@@QEAA@AEB_J@Z
	??$?0_J$0A@@?$duration@_JU?$ratio@$00$0JIJGIA@@std@@@chrono@std@@QEAA@AEB_J@Z
	??$?0_JU?$ratio@$00$0DOI@@std@@$0A@@?$duration@_JU?$ratio@$00$0DLJKMKAA@@std@@@chrono@std@@QEAA@AEBV?$duration@_JU?$ratio@$00$0DOI@@std@@@12@@Z
	??$?0_JU?$ratio@$00$0JIJGIA@@std@@$0A@@?$duration@MU?$ratio@$00$00@std@@@chrono@std@@QEAA@AEBV?$duration@_JU?$ratio@$00$0JIJGIA@@std@@@12@@Z
	??$?0_K$$V$0A@@?$tuple@$$QEA_K@std@@QEAA@$$QEA_K@Z
	??$?0_K@?$_Tuple_val@$$QEA_K@std@@QEAA@$$QEA_K@Z
	??$?0_W@?$allocator@U_Container_proxy@std@@@std@@QEAA@AEBV?$allocator@_W@1@@Z
	??$?4U?$default_delete@VDecal@olc@@@std@@$0A@@?$unique_ptr@VDecal@olc@@U?$default_delete@VDecal@olc@@@std@@@std@@QEAAAEAV01@$$QEAV01@@Z
	??$?4U?$default_delete@VMipsDisplay@@@std@@$0A@@?$unique_ptr@VMipsDisplay@@U?$default_delete@VMipsDisplay@@@std@@@std@@QEAAAEAV01@$$QEAV01@@Z
	??$?4U?$default_delete@VSprite@olc@@@std@@$0A@@?$unique_ptr@VSprite@olc@@U?$default_delete@VSprite@olc@@@std@@@std@@QEAAAEAV01@$$QEAV01@@Z
	??$?4VImageLoader_GDIPlus@olc@@U?$default_delete@VImageLoader_GDIPlus@olc@@@std@@$0A@@?$unique_ptr@VImageLoader@olc@@U?$default_delete@VImageLoader@olc@@@std@@@std@@QEAAAEAV01@$$QEAV?$unique_ptr@VImageLoader_GDIPlus@olc@@U?$default_delete@VImageLoader_GDIPlus@olc@@@std@@@1@@Z
	??$?4VPlatform_Windows@olc@@U?$default_delete@VPlatform_Windows@olc@@@std@@$0A@@?$unique_ptr@VPlatform@olc@@U?$default_delete@VPlatform@olc@@@std@@@std@@QEAAAEAV01@$$QEAV?$unique_ptr@VPlatform_Windows@olc@@U?$default_delete@VPlatform_Windows@olc@@@std@@@1@@Z
	??$?4VRenderer_OGL10@olc@@U?$default_delete@VRenderer_OGL10@olc@@@std@@$0A@@?$unique_ptr@VRenderer@olc@@U?$default_delete@VRenderer@olc@@@std@@@std@@QEAAAEAV01@$$QEAV?$unique_ptr@VRenderer_OGL10@olc@@U?$default_delete@VRenderer_OGL10@olc@@@std@@@1@@Z
	??$?6DU?$char_traits@D@std@@V?$allocator@D@1@@std@@YAAEAV?$basic_ostream@DU?$char_traits@D@std@@@0@AEAV10@AEBV?$basic_string@DU?$char_traits@D@std@@V?$allocator@D@2@@0@@Z
	??$?6U?$char_traits@D@std@@@std@@YAAEAV?$basic_ostream@DU?$char_traits@D@std@@@0@AEAV10@PEBD@Z
	??$?8$$A6AXXZ@std@@YA_NAEBV?$function@$$A6AXXZ@0@$$T@Z
	??$?8DU?$char_traits@D@std@@V?$allocator@D@1@@std@@YA_NAEBV?$basic_string@DU?$char_traits@D@std@@V?$allocator@D@2@@0@QEBD@Z
	??$?8UPixel@olc@@U01@@std@@YA_NAEBV?$allocator@UPixel@olc@@@0@0@Z
	??$?9V?$_Vector_iterator@V?$_Vector_val@U?$_Simple_types@ULayerDesc@olc@@@std@@@std@@@std@@V01@@std@@YA_NAEBV?$reverse_iterator@V?$_Vector_iterator@V?$_Vector_val@U?$_Simple_types@ULayerDesc@olc@@@std@@@std@@@std@@@0@0@Z
	??$?BH@?$v_2d@M@olc@@QEBA?AU?$v_2d@H@1@XZ
	??$?BM@?$v_2d@H@olc@@QEBA?AU?$v_2d@M@1@XZ
	??$?DHH@olc@@YA?A_PAEBU?$v_2d@H@0@0@Z
	??$?DHH@olc@@YA?A_PAEBU?$v_2d@H@0@AEBH@Z
	??$?DMH@olc@@YA?A_PAEBU?$v_2d@M@0@AEBU?$v_2d@H@0@@Z
	??$?DMM@olc@@YA?A_PAEBMAEBU?$v_2d@M@0@@Z
	??$?DMM@olc@@YA?A_PAEBU?$v_2d@M@0@0@Z
	??$?DMM@olc@@YA?A_PAEBU?$v_2d@M@0@AEBM@Z
	??$?GHH@olc@@YA?A_PAEBU?$v_2d@H@0@0@Z
	??$?GMM@olc@@YA?A_PAEBU?$v_2d@M@0@0@Z
	??$?GUsteady_clock@chrono@std@@V?$duration@_JU?$ratio@$00$0DLJKMKAA@@std@@@12@V312@@chrono@std@@YA?AV?$duration@_JU?$ratio@$00$0DLJKMKAA@@std@@@01@AEBV?$time_point@Usteady_clock@chrono@std@@V?$duration@_JU?$ratio@$00$0DLJKMKAA@@std@@@23@@01@0@Z
	??$?GUsteady_clock@chrono@std@@V?$duration@_JU?$ratio@$00$0DLJKMKAA@@std@@@12@_JU?$ratio@$00$0DOI@@2@@chrono@std@@YA?AV?$time_point@Usteady_clock@chrono@std@@V?$duration@_JU?$ratio@$00$0DLJKMKAA@@std@@@23@@01@AEBV201@AEBV?$duration@_JU?$ratio@$00$0DOI@@std@@@01@@Z
	??$?GUsystem_clock@chrono@std@@V?$duration@_JU?$ratio@$00$0JIJGIA@@std@@@12@V312@@chrono@std@@YA?AV?$duration@_JU?$ratio@$00$0JIJGIA@@std@@@01@AEBV?$time_point@Usystem_clock@chrono@std@@V?$duration@_JU?$ratio@$00$0JIJGIA@@std@@@23@@01@0@Z
	??$?G_JU?$ratio@$00$0DLJKMKAA@@std@@_JU01@@chrono@std@@YA?AV?$duration@_JU?$ratio@$00$0DLJKMKAA@@std@@@01@AEBV201@0@Z
	??$?G_JU?$ratio@$00$0DLJKMKAA@@std@@_JU?$ratio@$00$0DOI@@1@@chrono@std@@YA?AV?$duration@_JU?$ratio@$00$0DLJKMKAA@@std@@@01@AEBV201@AEBV?$duration@_JU?$ratio@$00$0DOI@@std@@@01@@Z
	??$?G_JU?$ratio@$00$0JIJGIA@@std@@_JU01@@chrono@std@@YA?AV?$duration@_JU?$ratio@$00$0JIJGIA@@std@@@01@AEBV201@0@Z
	??$?HDU?$char_traits@D@std@@V?$allocator@D@1@@std@@YA?AV?$basic_string@DU?$char_traits@D@std@@V?$allocator@D@2@@0@$$QEAV10@0@Z
	??$?HDU?$char_traits@D@std@@V?$allocator@D@1@@std@@YA?AV?$basic_string@DU?$char_traits@D@std@@V?$allocator@D@2@@0@$$QEAV10@QEBD@Z
	??$?HDU?$char_traits@D@std@@V?$allocator@D@1@@std@@YA?AV?$basic_string@DU?$char_traits@D@std@@V?$allocator@D@2@@0@QEBDAEBV10@@Z
	??$?HHH@olc@@YA?A_PAEBU?$v_2d@H@0@0@Z
	??$?HHM@olc@@YA?A_PAEBU?$v_2d@H@0@AEBU?$v_2d@M@0@@Z
	??$?HMM@olc@@YA?A_PAEBU?$v_2d@M@0@0@Z
	??$?KHH@olc@@YA?A_PAEBU?$v_2d@H@0@0@Z
	??$?KHH@olc@@YA?A_PAEBU?$v_2d@H@0@AEBH@Z
	??$?KMH@olc@@YA?A_PAEBMAEBU?$v_2d@H@0@@Z
	??$?KMM@olc@@YA?A_PAEBMAEBU?$v_2d@M@0@@Z
	??$?KMM@olc@@YA?A_PAEBU?$v_2d@M@0@0@Z
	??$?KMM@olc@@YA?A_PAEBU?$v_2d@M@0@AEBM@Z
	??$?MDU?$char_traits@D@std@@V?$allocator@D@1@@std@@YA_NAEBV?$basic_string@DU?$char_traits@D@std@@V?$allocator@D@2@@0@0@Z
	??$?MUsteady_clock@chrono@std@@V?$duration@_JU?$ratio@$00$0DLJKMKAA@@std@@@12@V312@@chrono@std@@YA_NAEBV?$time_point@Usteady_clock@chrono@std@@V?$duration@_JU?$ratio@$00$0DLJKMKAA@@std@@@23@@01@0@Z
	??$?M_JU?$ratio@$00$0DLJKMKAA@@std@@_JU01@@chrono@std@@YA_NAEBV?$duration@_JU?$ratio@$00$0DLJKMKAA@@std@@@01@0@Z
	??$?M_JU?$ratio@$00$0DOI@@std@@_JU01@@chrono@std@@YA_NAEBV?$duration@_JU?$ratio@$00$0DOI@@std@@@01@0@Z
	??$?M_JU?$ratio@$00$0DOI@@std@@_JU?$ratio@$00$0DLJKMKAA@@1@@chrono@std@@YA_NAEBV?$duration@_JU?$ratio@$00$0DOI@@std@@@01@AEBV?$duration@_JU?$ratio@$00$0DLJKMKAA@@std@@@01@@Z
	??$?NUsteady_clock@chrono@std@@V?$duration@_JU?$ratio@$00$0DLJKMKAA@@std@@@12@V312@@chrono@std@@YA_NAEBV?$time_point@Usteady_clock@chrono@std@@V?$duration@_JU?$ratio@$00$0DLJKMKAA@@std@@@23@@01@0@Z
	??$?O_JU?$ratio@$00$0DLJKMKAA@@std@@_JU?$ratio@$00$0DOI@@1@@chrono@std@@YA_NAEBV?$duration@_JU?$ratio@$00$0DLJKMKAA@@std@@@01@AEBV?$duration@_JU?$ratio@$00$0DOI@@std@@@01@@Z
	??$?O_JU?$ratio@$00$0DOI@@std@@_JU01@@chrono@std@@YA_NAEBV?$duration@_JU?$ratio@$00$0DOI@@std@@@01@0@Z
	??$?RW4Key@olc@@@?$_Uhash_compare@W4Key@olc@@U?$hash@W4Key@olc@@@std@@U?$equal_to@W4Key@olc@@@4@@std@@QEBA_KAEBW4Key@olc@@@Z
	??$?RW4Key@olc@@W401@@?$_Uhash_compare@W4Key@olc@@U?$hash@W4Key@olc@@@std@@U?$equal_to@W4Key@olc@@@4@@std@@QEBA_NAEBW4Key@olc@@0@Z
	??$?XMM@olc@@YA?A_PAEAU?$v_2d@M@0@AEBM@Z
	??$?YV?$basic_string_view@DU?$char_traits@D@std@@@std@@$0A@@?$basic_string@DU?$char_traits@D@std@@V?$allocator@D@2@@std@@QEAAAEAV01@AEBV?$basic_string_view@DU?$char_traits@D@std@@@1@@Z
	??$_Adl_verify_range@PEADPEAD@std@@YAXAEBQEAD0@Z
	??$_Adl_verify_range@PEAV?$_List_unchecked_iterator@V?$_List_val@U?$_List_simple_types@U?$pair@$$CBW4Key@olc@@V?$tuple@V?$basic_string@DU?$char_traits@D@std@@V?$allocator@D@2@@std@@V12@V12@V12@@std@@@std@@@std@@@std@@@std@@PEAV12@@std@@YAXAEBQEAV?$_List_unchecked_iterator@V?$_List_val@U?$_List_simple_types@U?$pair@$$CBW4Key@olc@@V?$tuple@V?$basic_string@DU?$char_traits@D@std@@V?$allocator@D@2@@std@@V12@V12@V12@@std@@@std@@@std@@@std@@@0@0@Z
	??$_Adl_verify_range@V?$_Array_const_iterator@U?$v_2d@M@olc@@$03@std@@V12@@std@@YAXAEBV?$_Array_const_iterator@U?$v_2d@M@olc@@$03@0@0@Z
	??$_Adl_verify_range@V?$_Vector_const_iterator@V?$_Vector_val@U?$_Simple_types@UPixel@olc@@@std@@@std@@@std@@V12@@std@@YAXAEBV?$_Vector_const_iterator@V?$_Vector_val@U?$_Simple_types@UPixel@olc@@@std@@@std@@@0@0@Z
	??$_Adl_verify_range@V?$_Vector_iterator@V?$_Vector_val@U?$_Simple_types@PEAVPGEX@olc@@@std@@@std@@@std@@V12@@std@@YAXAEBV?$_Vector_iterator@V?$_Vector_val@U?$_Simple_types@PEAVPGEX@olc@@@std@@@std@@@0@0@Z
	??$_Alloc_proxy@V?$allocator@U_Container_proxy@std@@@std@@@_Container_base12@std@@QEAAX$$QEAV?$allocator@U_Container_proxy@std@@@1@@Z
	??$_Allocate@$0BA@U_Default_allocate_traits@std@@@std@@YAPEAX_K@Z
	??$_Allocate_at_least_helper@V?$allocator@D@std@@@std@@YAPEADAEAV?$allocator@D@0@AEA_K@Z
	??$_Allocate_at_least_helper@V?$allocator@E@std@@@std@@YAPEAEAEAV?$allocator@E@0@AEA_K@Z
	??$_Allocate_at_least_helper@V?$allocator@H@std@@@std@@YAPEAHAEAV?$allocator@H@0@AEA_K@Z
	??$_Allocate_at_least_helper@V?$allocator@M@std@@@std@@YAPEAMAEAV?$allocator@M@0@AEA_K@Z
	??$_Allocate_at_least_helper@V?$allocator@PEAVPGEX@olc@@@std@@@std@@YAPEAPEAVPGEX@olc@@AEAV?$allocator@PEAVPGEX@olc@@@0@AEA_K@Z
	??$_Allocate_at_least_helper@V?$allocator@PEAX@std@@@std@@YAPEAPEAXAEAV?$allocator@PEAX@0@AEA_K@Z
	??$_Allocate_at_least_helper@V?$allocator@U?$v_2d@H@olc@@@std@@@std@@YAPEAU?$v_2d@H@olc@@AEAV?$allocator@U?$v_2d@H@olc@@@0@AEA_K@Z
	??$_Allocate_at_least_helper@V?$allocator@U?$v_2d@M@olc@@@std@@@std@@YAPEAU?$v_2d@M@olc@@AEAV?$allocator@U?$v_2d@M@olc@@@0@AEA_K@Z
	??$_Allocate_at_least_helper@V?$allocator@UDecalInstance@olc@@@std@@@std@@YAPEAUDecalInstance@olc@@AEAV?$allocator@UDecalInstance@olc@@@0@AEA_K@Z
	??$_Allocate_at_least_helper@V?$allocator@UGPUTask@olc@@@std@@@std@@YAPEAUGPUTask@olc@@AEAV?$allocator@UGPUTask@olc@@@0@AEA_K@Z
	??$_Allocate_at_least_helper@V?$allocator@ULayerDesc@olc@@@std@@@std@@YAPEAULayerDesc@olc@@AEAV?$allocator@ULayerDesc@olc@@@0@AEA_K@Z
	??$_Allocate_at_least_helper@V?$allocator@UPixel@olc@@@std@@@std@@YAPEAUPixel@olc@@AEAV?$allocator@UPixel@olc@@@0@AEA_K@Z
	??$_Allocate_at_least_helper@V?$allocator@UVertex@GPUTask@olc@@@std@@@std@@YAPEAUVertex@GPUTask@olc@@AEAV?$allocator@UVertex@GPUTask@olc@@@0@AEA_K@Z
	??$_Allocate_at_least_helper@V?$allocator@V?$basic_string@DU?$char_traits@D@std@@V?$allocator@D@2@@std@@@std@@@std@@YAPEAV?$basic_string@DU?$char_traits@D@std@@V?$allocator@D@2@@0@AEAV?$allocator@V?$basic_string@DU?$char_traits@D@std@@V?$allocator@D@2@@std@@@0@AEA_K@Z
	??$_Allocate_at_least_helper@V?$allocator@_W@std@@@std@@YAPEA_WAEAV?$allocator@_W@0@AEA_K@Z
	??$_Allocate_for_capacity@$0A@@?$basic_string@DU?$char_traits@D@std@@V?$allocator@D@2@@std@@CAPEADAEAV?$allocator@D@1@AEA_K@Z
	??$_Allocate_for_capacity@$0A@@?$basic_string@_WU?$char_traits@_W@std@@V?$allocator@_W@2@@std@@CAPEA_WAEAV?$allocator@_W@1@AEA_K@Z
	??$_Allocate_manually_vector_aligned@U_Default_allocate_traits@std@@@std@@YAPEAX_K@Z
	??$_Allocators_equal@V?$allocator@D@std@@@std@@YA_NAEBV?$allocator@D@0@0@Z
	??$_Append@D@?$basic_string@DU?$char_traits@D@std@@V?$allocator@D@2@@std@@AEAAAEAV01@QEBD_K@Z
	??$_Assign@D@?$basic_string@DU?$char_traits@D@std@@V?$allocator@D@2@@std@@AEAAAEAV01@QEBD_K@Z
	??$_Assign_counted_range@PEAV?$basic_string@DU?$char_traits@D@std@@V?$allocator@D@2@@std@@@?$vector@V?$basic_string@DU?$char_traits@D@std@@V?$allocator@D@2@@std@@V?$allocator@V?$basic_string@DU?$char_traits@D@std@@V?$allocator@D@2@@std@@@2@@std@@AEAAXPEAV?$basic_string@DU?$char_traits@D@std@@V?$allocator@D@2@@1@_K@Z
	??$_Assign_counted_range@PEBM@?$vector@MV?$allocator@M@std@@@std@@AEAAXPEBM_K@Z
	??$_Assign_counted_range@PEBU?$v_2d@M@olc@@@?$vector@U?$v_2d@M@olc@@V?$allocator@U?$v_2d@M@olc@@@std@@@std@@AEAAXPEBU?$v_2d@M@olc@@_K@Z
	??$_Assign_counted_range@PEBUPixel@olc@@@?$vector@UPixel@olc@@V?$allocator@UPixel@olc@@@std@@@std@@AEAAXPEBUPixel@olc@@_K@Z
	??$_Assign_counted_range@PEBUVertex@GPUTask@olc@@@?$vector@UVertex@GPUTask@olc@@V?$allocator@UVertex@GPUTask@olc@@@std@@@std@@AEAAXPEBUVertex@GPUTask@olc@@_K@Z
	??$_Atomic_address_as@DU?$_Atomic_padded@_N@std@@@std@@YAPECDAEAU?$_Atomic_padded@_N@0@@Z
	??$_Atomic_address_as@DU?$_Atomic_padded@_N@std@@@std@@YAPEDDAEBU?$_Atomic_padded@_N@0@@Z
	??$_Atomic_reinterpret_as@D_N@std@@YADAEB_N@Z
	??$_Bit_cast@_KT_Addr_storage@error_category@std@@$0A@@std@@YA_KAEBT_Addr_storage@error_category@0@@Z
	??$_Bitmask_includes_any@W4__std_fs_file_attr@@@std@@YA_NW4__std_fs_file_attr@@0@Z
	??$_Buyheadnode@V?$allocator@U?$_Tree_node@U?$pair@$$CBV?$basic_string@DU?$char_traits@D@std@@V?$allocator@D@2@@std@@UsResourceFile@ResourcePack@olc@@@std@@PEAX@std@@@std@@@?$_Tree_node@U?$pair@$$CBV?$basic_string@DU?$char_traits@D@std@@V?$allocator@D@2@@std@@UsResourceFile@ResourcePack@olc@@@std@@PEAX@std@@SAPEAU01@AEAV?$allocator@U?$_Tree_node@U?$pair@$$CBV?$basic_string@DU?$char_traits@D@std@@V?$allocator@D@2@@std@@UsResourceFile@ResourcePack@olc@@@std@@PEAX@std@@@1@@Z
	??$_Buyheadnode@V?$allocator@U?$_Tree_node@U?$pair@$$CB_KW4Key@olc@@@std@@PEAX@std@@@std@@@?$_Tree_node@U?$pair@$$CB_KW4Key@olc@@@std@@PEAX@std@@SAPEAU01@AEAV?$allocator@U?$_Tree_node@U?$pair@$$CB_KW4Key@olc@@@std@@PEAX@std@@@1@@Z
	??$_Clamped_rel_time_ms_count@V?$duration@_JU?$ratio@$00$0DLJKMKAA@@std@@@chrono@std@@@std@@YA?AU_Clamped_rel_time_ms_count_result@0@AEBV?$duration@_JU?$ratio@$00$0DLJKMKAA@@std@@@chrono@0@@Z
	??$_Construct@$00PEAD@?$basic_string@DU?$char_traits@D@std@@V?$allocator@D@2@@std@@AEAAXQEAD_K@Z
	??$_Construct@$00PEBD@?$basic_string@DU?$char_traits@D@std@@V?$allocator@D@2@@std@@AEAAXQEBD_K@Z
	??$_Construct@$00PEB_W@?$basic_string@_WU?$char_traits@_W@std@@V?$allocator@_W@2@@std@@AEAAXQEB_W_K@Z
	??$_Construct@$01PEBD@?$basic_string@DU?$char_traits@D@std@@V?$allocator@D@2@@std@@AEAAXQEBD_K@Z
	??$_Construct@$01PEB_W@?$basic_string@_WU?$char_traits@_W@std@@V?$allocator@_W@2@@std@@AEAAXQEB_W_K@Z
	??$_Construct@$0A@D@?$basic_string@DU?$char_traits@D@std@@V?$allocator@D@2@@std@@AEAAXD_K@Z
	??$_Construct_in_place@DD@std@@YAXAEAD$$QEAD@Z
	??$_Construct_in_place@HAEBH@std@@YAXAEAHAEBH@Z
	??$_Construct_in_place@PEADAEAPEAD@std@@YAXAEAPEAD0@Z
	??$_Construct_in_place@PEADAEBQEAD@std@@YAXAEAPEADAEBQEAD@Z
	??$_Construct_in_place@PEAU?$_List_node@U?$pair@$$CBW4Key@olc@@V?$tuple@V?$basic_string@DU?$char_traits@D@std@@V?$allocator@D@2@@std@@V12@V12@V12@@std@@@std@@PEAX@std@@AEAPEAU12@@std@@YAXAEAPEAU?$_List_node@U?$pair@$$CBW4Key@olc@@V?$tuple@V?$basic_string@DU?$char_traits@D@std@@V?$allocator@D@2@@std@@V12@V12@V12@@std@@@std@@PEAX@0@0@Z
	??$_Construct_in_place@PEAU?$_List_node@U?$pair@$$CBW4Key@olc@@V?$tuple@V?$basic_string@DU?$char_traits@D@std@@V?$allocator@D@2@@std@@V12@V12@V12@@std@@@std@@PEAX@std@@AEBQEAU12@@std@@YAXAEAPEAU?$_List_node@U?$pair@$$CBW4Key@olc@@V?$tuple@V?$basic_string@DU?$char_traits@D@std@@V?$allocator@D@2@@std@@V12@V12@V12@@std@@@std@@PEAX@0@AEBQEAU10@@Z
	??$_Construct_in_place@PEAU?$_List_node@V?$basic_string@DU?$char_traits@D@std@@V?$allocator@D@2@@std@@PEAX@std@@AEAPEAU12@@std@@YAXAEAPEAU?$_List_node@V?$basic_string@DU?$char_traits@D@std@@V?$allocator@D@2@@std@@PEAX@0@0@Z
	??$_Construct_in_place@PEAU?$_List_node@V?$basic_string@DU?$char_traits@D@std@@V?$allocator@D@2@@std@@PEAX@std@@AEBQEAU12@@std@@YAXAEAPEAU?$_List_node@V?$basic_string@DU?$char_traits@D@std@@V?$allocator@D@2@@std@@PEAX@0@AEBQEAU10@@Z
	??$_Construct_in_place@PEAU?$_Tree_node@U?$pair@$$CBV?$basic_string@DU?$char_traits@D@std@@V?$allocator@D@2@@std@@UsResourceFile@ResourcePack@olc@@@std@@PEAX@std@@AEAPEAU12@@std@@YAXAEAPEAU?$_Tree_node@U?$pair@$$CBV?$basic_string@DU?$char_traits@D@std@@V?$allocator@D@2@@std@@UsResourceFile@ResourcePack@olc@@@std@@PEAX@0@0@Z
	??$_Construct_in_place@PEAU?$_Tree_node@U?$pair@$$CBV?$basic_string@DU?$char_traits@D@std@@V?$allocator@D@2@@std@@UsResourceFile@ResourcePack@olc@@@std@@PEAX@std@@AEBQEAU12@@std@@YAXAEAPEAU?$_Tree_node@U?$pair@$$CBV?$basic_string@DU?$char_traits@D@std@@V?$allocator@D@2@@std@@UsResourceFile@ResourcePack@olc@@@std@@PEAX@0@AEBQEAU10@@Z
	??$_Construct_in_place@PEAU?$_Tree_node@U?$pair@$$CB_KW4Key@olc@@@std@@PEAX@std@@AEAPEAU12@@std@@YAXAEAPEAU?$_Tree_node@U?$pair@$$CB_KW4Key@olc@@@std@@PEAX@0@0@Z
	??$_Construct_in_place@PEAU?$_Tree_node@U?$pair@$$CB_KW4Key@olc@@@std@@PEAX@std@@AEBQEAU12@@std@@YAXAEAPEAU?$_Tree_node@U?$pair@$$CB_KW4Key@olc@@@std@@PEAX@0@AEBQEAU10@@Z
	??$_Construct_in_place@PEAVPGEX@olc@@AEBQEAV12@@std@@YAXAEAPEAVPGEX@olc@@AEBQEAV12@@Z
	??$_Construct_in_place@PEA_WAEAPEA_W@std@@YAXAEAPEA_W0@Z
	??$_Construct_in_place@PEA_WAEBQEA_W@std@@YAXAEAPEA_WAEBQEA_W@Z
	??$_Construct_in_place@U?$v_2d@H@olc@@U12@@std@@YAXAEAU?$v_2d@H@olc@@$$QEAU12@@Z
	??$_Construct_in_place@ULayerDesc@olc@@U12@@std@@YAXAEAULayerDesc@olc@@$$QEAU12@@Z
	??$_Construct_in_place@U_Container_proxy@std@@PEAU_Container_base12@2@@std@@YAXAEAU_Container_proxy@0@$$QEAPEAU_Container_base12@0@@Z
	??$_Construct_in_place@V?$_List_unchecked_iterator@V?$_List_val@U?$_List_simple_types@U?$pair@$$CBW4Key@olc@@V?$tuple@V?$basic_string@DU?$char_traits@D@std@@V?$allocator@D@2@@std@@V12@V12@V12@@std@@@std@@@std@@@std@@@std@@AEBV12@@std@@YAXAEAV?$_List_unchecked_iterator@V?$_List_val@U?$_List_simple_types@U?$pair@$$CBW4Key@olc@@V?$tuple@V?$basic_string@DU?$char_traits@D@std@@V?$allocator@D@2@@std@@V12@V12@V12@@std@@@std@@@std@@@std@@@0@AEBV10@@Z
	??$_Construct_in_place@V?$basic_string@DU?$char_traits@D@std@@V?$allocator@D@2@@std@@V12@@std@@YAXAEAV?$basic_string@DU?$char_traits@D@std@@V?$allocator@D@2@@0@$$QEAV10@@Z
	??$_Construct_n@$$V@?$vector@DV?$allocator@D@std@@@std@@AEAAX_K@Z
	??$_Construct_n@$$V@?$vector@EV?$allocator@E@std@@@std@@AEAAX_K@Z
	??$_Construct_n@$$V@?$vector@U?$v_2d@M@olc@@V?$allocator@U?$v_2d@M@olc@@@std@@@std@@AEAAX_K@Z
	??$_Construct_n@AEBQEADAEBQEAD@?$vector@DV?$allocator@D@std@@@std@@AEAAX_KAEBQEAD1@Z
	??$_Construct_n@AEBQEAMAEBQEAM@?$vector@MV?$allocator@M@std@@@std@@AEAAX_KAEBQEAM1@Z
	??$_Construct_n@AEBQEAU?$v_2d@M@olc@@AEBQEAU12@@?$vector@U?$v_2d@M@olc@@V?$allocator@U?$v_2d@M@olc@@@std@@@std@@AEAAX_KAEBQEAU?$v_2d@M@olc@@1@Z
	??$_Construct_n@AEBQEAUPixel@olc@@AEBQEAU12@@?$vector@UPixel@olc@@V?$allocator@UPixel@olc@@@std@@@std@@AEAAX_KAEBQEAUPixel@olc@@1@Z
	??$_Construct_n@AEBQEAUVertex@GPUTask@olc@@AEBQEAU123@@?$vector@UVertex@GPUTask@olc@@V?$allocator@UVertex@GPUTask@olc@@@std@@@std@@AEAAX_KAEBQEAUVertex@GPUTask@olc@@1@Z
	??$_Construct_n@AEBUPixel@olc@@@?$vector@UPixel@olc@@V?$allocator@UPixel@olc@@@std@@@std@@AEAAX_KAEBUPixel@olc@@@Z
	??$_Construct_n@PEBQEAXPEBQEAX@?$vector@PEAXV?$allocator@PEAX@std@@@std@@AEAAX_K$$QEAPEBQEAX1@Z
	??$_Construct_n@PEBU?$v_2d@M@olc@@PEBU12@@?$vector@U?$v_2d@M@olc@@V?$allocator@U?$v_2d@M@olc@@@std@@@std@@AEAAX_K$$QEAPEBU?$v_2d@M@olc@@1@Z
	??$_Construct_n@PEBUPixel@olc@@PEBU12@@?$vector@UPixel@olc@@V?$allocator@UPixel@olc@@@std@@@std@@AEAAX_K$$QEAPEBUPixel@olc@@1@Z
	??$_Convert_Source_to_wide@V?$basic_string@DU?$char_traits@D@std@@V?$allocator@D@2@@std@@U_Normal_conversion@filesystem@2@@filesystem@std@@YA?AV?$basic_string@_WU?$char_traits@_W@std@@V?$allocator@_W@2@@1@AEBV?$basic_string@DU?$char_traits@D@std@@V?$allocator@D@2@@1@U_Normal_conversion@01@@Z
	??$_Convert_size@_K_K@std@@YA_K_K@Z
	??$_Convert_stringoid_to_wide@U_Normal_conversion@filesystem@std@@@filesystem@std@@YA?AV?$basic_string@_WU?$char_traits@_W@std@@V?$allocator@_W@2@@1@V?$basic_string_view@DU?$char_traits@D@std@@@1@U_Normal_conversion@01@@Z
	??$_Convert_wide_to_narrow_replace_chars@U?$char_traits@D@std@@V?$allocator@D@2@@filesystem@std@@YA?AV?$basic_string@DU?$char_traits@D@std@@V?$allocator@D@2@@1@W4__std_code_page@@V?$basic_string_view@_WU?$char_traits@_W@std@@@1@AEBV?$allocator@D@1@@Z
	??$_Copy_memmove@PEADPEAD@std@@YAPEADPEAD00@Z
	??$_Copy_memmove@PEAHPEAH@std@@YAPEAHPEAH00@Z
	??$_Copy_memmove@PEAMPEAM@std@@YAPEAMPEAM00@Z
	??$_Copy_memmove@PEAPEAVPGEX@olc@@PEAPEAV12@@std@@YAPEAPEAVPGEX@olc@@PEAPEAV12@00@Z
	??$_Copy_memmove@PEAU?$v_2d@H@olc@@PEAU12@@std@@YAPEAU?$v_2d@H@olc@@PEAU12@00@Z
	??$_Copy_memmove@PEAU?$v_2d@M@olc@@PEAU12@@std@@YAPEAU?$v_2d@M@olc@@PEAU12@00@Z
	??$_Copy_memmove@PEAUPixel@olc@@PEAU12@@std@@YAPEAUPixel@olc@@PEAU12@00@Z
	??$_Copy_memmove@PEAUVertex@GPUTask@olc@@PEAU123@@std@@YAPEAUVertex@GPUTask@olc@@PEAU123@00@Z
	??$_Copy_memmove@PEBQEAXPEAPEAX@std@@YAPEAPEAXPEBQEAX0PEAPEAX@Z
	??$_Copy_memmove@PEBU?$v_2d@M@olc@@PEAU12@@std@@YAPEAU?$v_2d@M@olc@@PEBU12@0PEAU12@@Z
	??$_Copy_memmove@PEBUPixel@olc@@PEAU12@@std@@YAPEAUPixel@olc@@PEBU12@0PEAU12@@Z
	??$_Copy_memmove_n@PEBMPEAM@std@@YAPEAMPEBM_KPEAM@Z
	??$_Copy_memmove_n@PEBU?$v_2d@M@olc@@PEAU12@@std@@YAPEAU?$v_2d@M@olc@@PEBU12@_KPEAU12@@Z
	??$_Copy_memmove_n@PEBUPixel@olc@@PEAU12@@std@@YAPEAUPixel@olc@@PEBU12@_KPEAU12@@Z
	??$_Copy_memmove_n@PEBUVertex@GPUTask@olc@@PEAU123@@std@@YAPEAUVertex@GPUTask@olc@@PEBU123@_KPEAU123@@Z
	??$_Copy_memmove_tail@PEAD@std@@YAPEADQEBDQEAD_K2@Z
	??$_Copy_memmove_tail@PEAH@std@@YAPEAHQEBDQEAH_K2@Z
	??$_Copy_memmove_tail@PEAM@std@@YAPEAMQEBDQEAM_K2@Z
	??$_Copy_memmove_tail@PEAPEAVPGEX@olc@@@std@@YAPEAPEAVPGEX@olc@@QEBDQEAPEAV12@_K2@Z
	??$_Copy_memmove_tail@PEAPEAX@std@@YAPEAPEAXQEBDQEAPEAX_K2@Z
	??$_Copy_memmove_tail@PEAU?$v_2d@H@olc@@@std@@YAPEAU?$v_2d@H@olc@@QEBDQEAU12@_K2@Z
	??$_Copy_memmove_tail@PEAU?$v_2d@M@olc@@@std@@YAPEAU?$v_2d@M@olc@@QEBDQEAU12@_K2@Z
	??$_Copy_memmove_tail@PEAUPixel@olc@@@std@@YAPEAUPixel@olc@@QEBDQEAU12@_K2@Z
	??$_Copy_memmove_tail@PEAUVertex@GPUTask@olc@@@std@@YAPEAUVertex@GPUTask@olc@@QEBDQEAU123@_K2@Z
	??$_Copy_n_unchecked4@PEAV?$basic_string@DU?$char_traits@D@std@@V?$allocator@D@2@@std@@_KPEAV12@@std@@YAPEAV?$basic_string@DU?$char_traits@D@std@@V?$allocator@D@2@@0@PEAV10@_K0@Z
	??$_Copy_n_unchecked4@PEBM_KPEAM@std@@YAPEAMPEBM_KPEAM@Z
	??$_Copy_n_unchecked4@PEBU?$v_2d@M@olc@@_KPEAU12@@std@@YAPEAU?$v_2d@M@olc@@PEBU12@_KPEAU12@@Z
	??$_Copy_n_unchecked4@PEBUPixel@olc@@_KPEAU12@@std@@YAPEAUPixel@olc@@PEBU12@_KPEAU12@@Z
	??$_Copy_n_unchecked4@PEBUVertex@GPUTask@olc@@_KPEAU123@@std@@YAPEAUVertex@GPUTask@olc@@PEBU123@_KPEAU123@@Z
	??$_Could_compare_equal_to_value_type@PEAPEAVPGEX@olc@@PEAV12@@std@@YA_NAEBQEAVPGEX@olc@@@Z
	??$_Deallocate@$0BA@@std@@YAXPEAX_K@Z
	??$_Deallocate_plain@V?$allocator@U_Container_proxy@std@@@std@@@std@@YAXAEAV?$allocator@U_Container_proxy@std@@@0@QEAU_Container_proxy@0@@Z
	??$_Debug_lt_pred@AEBU?$less@V?$basic_string@DU?$char_traits@D@std@@V?$allocator@D@2@@std@@@std@@AEBV?$basic_string@DU?$char_traits@D@std@@V?$allocator@D@2@@2@AEBV32@@std@@YA_NAEBU?$less@V?$basic_string@DU?$char_traits@D@std@@V?$allocator@D@2@@std@@@0@AEBV?$basic_string@DU?$char_traits@D@std@@V?$allocator@D@2@@0@1@Z
	??$_Debug_lt_pred@AEBU?$less@_K@std@@AEB_KAEB_K@std@@YA_NAEBU?$less@_K@0@AEB_K1@Z
	??$_Delete_plain_internal@V?$allocator@U_Container_proxy@std@@@std@@@std@@YAXAEAV?$allocator@U_Container_proxy@std@@@0@QEAU_Container_proxy@0@@Z
	??$_Destroy_in_place@PEAD@std@@YAXAEAPEAD@Z
	??$_Destroy_in_place@PEAU?$_List_node@U?$pair@$$CBW4Key@olc@@V?$tuple@V?$basic_string@DU?$char_traits@D@std@@V?$allocator@D@2@@std@@V12@V12@V12@@std@@@std@@PEAX@std@@@std@@YAXAEAPEAU?$_List_node@U?$pair@$$CBW4Key@olc@@V?$tuple@V?$basic_string@DU?$char_traits@D@std@@V?$allocator@D@2@@std@@V12@V12@V12@@std@@@std@@PEAX@0@@Z
	??$_Destroy_in_place@PEAU?$_List_node@V?$basic_string@DU?$char_traits@D@std@@V?$allocator@D@2@@std@@PEAX@std@@@std@@YAXAEAPEAU?$_List_node@V?$basic_string@DU?$char_traits@D@std@@V?$allocator@D@2@@std@@PEAX@0@@Z
	??$_Destroy_in_place@PEAU?$_Tree_node@U?$pair@$$CBV?$basic_string@DU?$char_traits@D@std@@V?$allocator@D@2@@std@@UsResourceFile@ResourcePack@olc@@@std@@PEAX@std@@@std@@YAXAEAPEAU?$_Tree_node@U?$pair@$$CBV?$basic_string@DU?$char_traits@D@std@@V?$allocator@D@2@@std@@UsResourceFile@ResourcePack@olc@@@std@@PEAX@0@@Z
	??$_Destroy_in_place@PEAU?$_Tree_node@U?$pair@$$CB_KW4Key@olc@@@std@@PEAX@std@@@std@@YAXAEAPEAU?$_Tree_node@U?$pair@$$CB_KW4Key@olc@@@std@@PEAX@0@@Z
	??$_Destroy_in_place@PEA_W@std@@YAXAEAPEA_W@Z
	??$_Destroy_range@PEAV?$_List_unchecked_iterator@V?$_List_val@U?$_List_simple_types@U?$pair@$$CBW4Key@olc@@V?$tuple@V?$basic_string@DU?$char_traits@D@std@@V?$allocator@D@2@@std@@V12@V12@V12@@std@@@std@@@std@@@std@@@std@@PEAV12@@std@@YAXPEAV?$_List_unchecked_iterator@V?$_List_val@U?$_List_simple_types@U?$pair@$$CBW4Key@olc@@V?$tuple@V?$basic_string@DU?$char_traits@D@std@@V?$allocator@D@2@@std@@V12@V12@V12@@std@@@std@@@std@@@std@@@0@QEAV10@@Z
	??$_Destroy_range@V?$allocator@D@std@@@std@@YAXPEADQEADAEAV?$allocator@D@0@@Z
	??$_Destroy_range@V?$allocator@E@std@@@std@@YAXPEAEQEAEAEAV?$allocator@E@0@@Z
	??$_Destroy_range@V?$allocator@H@std@@@std@@YAXPEAHQEAHAEAV?$allocator@H@0@@Z
	??$_Destroy_range@V?$allocator@M@std@@@std@@YAXPEAMQEAMAEAV?$allocator@M@0@@Z
	??$_Destroy_range@V?$allocator@PEAVPGEX@olc@@@std@@@std@@YAXPEAPEAVPGEX@olc@@QEAPEAV12@AEAV?$allocator@PEAVPGEX@olc@@@0@@Z
	??$_Destroy_range@V?$allocator@PEAX@std@@@std@@YAXPEAPEAXQEAPEAXAEAV?$allocator@PEAX@0@@Z
	??$_Destroy_range@V?$allocator@U?$v_2d@H@olc@@@std@@@std@@YAXPEAU?$v_2d@H@olc@@QEAU12@AEAV?$allocator@U?$v_2d@H@olc@@@0@@Z
	??$_Destroy_range@V?$allocator@U?$v_2d@M@olc@@@std@@@std@@YAXPEAU?$v_2d@M@olc@@QEAU12@AEAV?$allocator@U?$v_2d@M@olc@@@0@@Z
	??$_Destroy_range@V?$allocator@UDecalInstance@olc@@@std@@@std@@YAXPEAUDecalInstance@olc@@QEAU12@AEAV?$allocator@UDecalInstance@olc@@@0@@Z
	??$_Destroy_range@V?$allocator@UGPUTask@olc@@@std@@@std@@YAXPEAUGPUTask@olc@@QEAU12@AEAV?$allocator@UGPUTask@olc@@@0@@Z
	??$_Destroy_range@V?$allocator@ULayerDesc@olc@@@std@@@std@@YAXPEAULayerDesc@olc@@QEAU12@AEAV?$allocator@ULayerDesc@olc@@@0@@Z
	??$_Destroy_range@V?$allocator@UPixel@olc@@@std@@@std@@YAXPEAUPixel@olc@@QEAU12@AEAV?$allocator@UPixel@olc@@@0@@Z
	??$_Destroy_range@V?$allocator@UVertex@GPUTask@olc@@@std@@@std@@YAXPEAUVertex@GPUTask@olc@@QEAU123@AEAV?$allocator@UVertex@GPUTask@olc@@@0@@Z
	??$_Destroy_range@V?$allocator@V?$basic_string@DU?$char_traits@D@std@@V?$allocator@D@2@@std@@@std@@@std@@YAXPEAV?$basic_string@DU?$char_traits@D@std@@V?$allocator@D@2@@0@QEAV10@AEAV?$allocator@V?$basic_string@DU?$char_traits@D@std@@V?$allocator@D@2@@std@@@0@@Z
	??$_Emplace@AEBV?$basic_string@DU?$char_traits@D@std@@V?$allocator@D@2@@std@@@?$list@V?$basic_string@DU?$char_traits@D@std@@V?$allocator@D@2@@std@@V?$allocator@V?$basic_string@DU?$char_traits@D@std@@V?$allocator@D@2@@std@@@2@@std@@QEAAPEAU?$_List_node@V?$basic_string@DU?$char_traits@D@std@@V?$allocator@D@2@@std@@PEAX@1@QEAU21@AEBV?$basic_string@DU?$char_traits@D@std@@V?$allocator@D@2@@1@@Z
	??$_Emplace_back@$$V@?$_Uninitialized_backout_al@V?$allocator@D@std@@@std@@QEAAXXZ
	??$_Emplace_back@$$V@?$_Uninitialized_backout_al@V?$allocator@E@std@@@std@@QEAAXXZ
	??$_Emplace_back@$$V@?$_Uninitialized_backout_al@V?$allocator@M@std@@@std@@QEAAXXZ
	??$_Emplace_back@$$V@?$_Uninitialized_backout_al@V?$allocator@U?$v_2d@M@olc@@@std@@@std@@QEAAXXZ
	??$_Emplace_back@$$V@?$_Uninitialized_backout_al@V?$allocator@UPixel@olc@@@std@@@std@@QEAAXXZ
	??$_Emplace_back@$$V@?$_Uninitialized_backout_al@V?$allocator@UVertex@GPUTask@olc@@@std@@@std@@QEAAXXZ
	??$_Emplace_back@$$V@?$_Uninitialized_backout_al@V?$allocator@V?$basic_string@DU?$char_traits@D@std@@V?$allocator@D@2@@std@@@std@@@std@@QEAAXXZ
	??$_Emplace_back@AEAD@?$_Uninitialized_backout_al@V?$allocator@D@std@@@std@@QEAAXAEAD@Z
	??$_Emplace_back@AEAM@?$_Uninitialized_backout_al@V?$allocator@M@std@@@std@@QEAAXAEAM@Z
	??$_Emplace_back@AEAU?$v_2d@M@olc@@@?$_Uninitialized_backout_al@V?$allocator@U?$v_2d@M@olc@@@std@@@std@@QEAAXAEAU?$v_2d@M@olc@@@Z
	??$_Emplace_back@AEAUPixel@olc@@@?$_Uninitialized_backout_al@V?$allocator@UPixel@olc@@@std@@@std@@QEAAXAEAUPixel@olc@@@Z
	??$_Emplace_back@AEAUVertex@GPUTask@olc@@@?$_Uninitialized_backout_al@V?$allocator@UVertex@GPUTask@olc@@@std@@@std@@QEAAXAEAUVertex@GPUTask@olc@@@Z
	??$_Emplace_back@AEAV?$basic_string@DU?$char_traits@D@std@@V?$allocator@D@2@@std@@@?$_Uninitialized_backout_al@V?$allocator@V?$basic_string@DU?$char_traits@D@std@@V?$allocator@D@2@@std@@@std@@@std@@QEAAXAEAV?$basic_string@DU?$char_traits@D@std@@V?$allocator@D@2@@1@@Z
	??$_Emplace_back@AEBM@?$_Uninitialized_backout_al@V?$allocator@M@std@@@std@@QEAAXAEBM@Z
	??$_Emplace_back@AEBQEAX@?$_Uninitialized_backout_al@V?$allocator@PEAX@std@@@std@@QEAAXAEBQEAX@Z
	??$_Emplace_back@AEBU?$v_2d@M@olc@@@?$_Uninitialized_backout_al@V?$allocator@U?$v_2d@M@olc@@@std@@@std@@QEAAXAEBU?$v_2d@M@olc@@@Z
	??$_Emplace_back@AEBUPixel@olc@@@?$_Uninitialized_backout_al@V?$allocator@UPixel@olc@@@std@@@std@@QEAAXAEBUPixel@olc@@@Z
	??$_Emplace_back@AEBUVertex@GPUTask@olc@@@?$_Uninitialized_backout_al@V?$allocator@UVertex@GPUTask@olc@@@std@@@std@@QEAAXAEBUVertex@GPUTask@olc@@@Z
	??$_Emplace_back@AEBV?$_List_unchecked_iterator@V?$_List_val@U?$_List_simple_types@U?$pair@$$CBW4Key@olc@@V?$tuple@V?$basic_string@DU?$char_traits@D@std@@V?$allocator@D@2@@std@@V12@V12@V12@@std@@@std@@@std@@@std@@@std@@@?$_Uninitialized_backout@PEAV?$_List_unchecked_iterator@V?$_List_val@U?$_List_simple_types@U?$pair@$$CBW4Key@olc@@V?$tuple@V?$basic_string@DU?$char_traits@D@std@@V?$allocator@D@2@@std@@V12@V12@V12@@std@@@std@@@std@@@std@@@std@@@std@@QEAAXAEBV?$_List_unchecked_iterator@V?$_List_val@U?$_List_simple_types@U?$pair@$$CBW4Key@olc@@V?$tuple@V?$basic_string@DU?$char_traits@D@std@@V?$allocator@D@2@@std@@V12@V12@V12@@std@@@std@@@std@@@std@@@1@@Z
	??$_Emplace_back@D@?$_Uninitialized_backout_al@V?$allocator@D@std@@@std@@QEAAX$$QEAD@Z
	??$_Emplace_back@H@?$_Uninitialized_backout_al@V?$allocator@H@std@@@std@@QEAAX$$QEAH@Z
	??$_Emplace_back@M@?$_Uninitialized_backout_al@V?$allocator@M@std@@@std@@QEAAX$$QEAM@Z
	??$_Emplace_back@PEAVPGEX@olc@@@?$_Uninitialized_backout_al@V?$allocator@PEAVPGEX@olc@@@std@@@std@@QEAAX$$QEAPEAVPGEX@olc@@@Z
	??$_Emplace_back@U?$v_2d@H@olc@@@?$_Uninitialized_backout_al@V?$allocator@U?$v_2d@H@olc@@@std@@@std@@QEAAX$$QEAU?$v_2d@H@olc@@@Z
	??$_Emplace_back@U?$v_2d@M@olc@@@?$_Uninitialized_backout_al@V?$allocator@U?$v_2d@M@olc@@@std@@@std@@QEAAX$$QEAU?$v_2d@M@olc@@@Z
	??$_Emplace_back@UDecalInstance@olc@@@?$_Uninitialized_backout_al@V?$allocator@UDecalInstance@olc@@@std@@@std@@QEAAX$$QEAUDecalInstance@olc@@@Z
	??$_Emplace_back@UGPUTask@olc@@@?$_Uninitialized_backout_al@V?$allocator@UGPUTask@olc@@@std@@@std@@QEAAX$$QEAUGPUTask@olc@@@Z
	??$_Emplace_back@ULayerDesc@olc@@@?$_Uninitialized_backout_al@V?$allocator@ULayerDesc@olc@@@std@@@std@@QEAAX$$QEAULayerDesc@olc@@@Z
	??$_Emplace_back@UPixel@olc@@@?$_Uninitialized_backout_al@V?$allocator@UPixel@olc@@@std@@@std@@QEAAX$$QEAUPixel@olc@@@Z
	??$_Emplace_back@UVertex@GPUTask@olc@@@?$_Uninitialized_backout_al@V?$allocator@UVertex@GPUTask@olc@@@std@@@std@@QEAAX$$QEAUVertex@GPUTask@olc@@@Z
	??$_Emplace_back@V?$basic_string@DU?$char_traits@D@std@@V?$allocator@D@2@@std@@@?$_Uninitialized_backout_al@V?$allocator@V?$basic_string@DU?$char_traits@D@std@@V?$allocator@D@2@@std@@@std@@@std@@QEAAX$$QEAV?$basic_string@DU?$char_traits@D@std@@V?$allocator@D@2@@1@@Z
	??$_Emplace_back_with_unused_capacity@AEBH@?$vector@HV?$allocator@H@std@@@std@@AEAAAEAHAEBH@Z
	??$_Emplace_back_with_unused_capacity@AEBQEAVPGEX@olc@@@?$vector@PEAVPGEX@olc@@V?$allocator@PEAVPGEX@olc@@@std@@@std@@AEAAAEAPEAVPGEX@olc@@AEBQEAV23@@Z
	??$_Emplace_back_with_unused_capacity@AEBUDecalInstance@olc@@@?$vector@UDecalInstance@olc@@V?$allocator@UDecalInstance@olc@@@std@@@std@@AEAAAEAUDecalInstance@olc@@AEBU23@@Z
	??$_Emplace_back_with_unused_capacity@AEBUGPUTask@olc@@@?$vector@UGPUTask@olc@@V?$allocator@UGPUTask@olc@@@std@@@std@@AEAAAEAUGPUTask@olc@@AEBU23@@Z
	??$_Emplace_back_with_unused_capacity@D@?$vector@DV?$allocator@D@std@@@std@@AEAAAEAD$$QEAD@Z
	??$_Emplace_back_with_unused_capacity@U?$v_2d@H@olc@@@?$vector@U?$v_2d@H@olc@@V?$allocator@U?$v_2d@H@olc@@@std@@@std@@AEAAAEAU?$v_2d@H@olc@@$$QEAU23@@Z
	??$_Emplace_back_with_unused_capacity@ULayerDesc@olc@@@?$vector@ULayerDesc@olc@@V?$allocator@ULayerDesc@olc@@@std@@@std@@AEAAAEAULayerDesc@olc@@$$QEAU23@@Z
	??$_Emplace_back_with_unused_capacity@V?$basic_string@DU?$char_traits@D@std@@V?$allocator@D@2@@std@@@?$vector@V?$basic_string@DU?$char_traits@D@std@@V?$allocator@D@2@@std@@V?$allocator@V?$basic_string@DU?$char_traits@D@std@@V?$allocator@D@2@@std@@@2@@std@@AEAAAEAV?$basic_string@DU?$char_traits@D@std@@V?$allocator@D@2@@1@$$QEAV21@@Z
	??$_Emplace_one_at_back@AEBH@?$vector@HV?$allocator@H@std@@@std@@AEAAAEAHAEBH@Z
	??$_Emplace_one_at_back@AEBQEAVPGEX@olc@@@?$vector@PEAVPGEX@olc@@V?$allocator@PEAVPGEX@olc@@@std@@@std@@AEAAAEAPEAVPGEX@olc@@AEBQEAV23@@Z
	??$_Emplace_one_at_back@AEBUDecalInstance@olc@@@?$vector@UDecalInstance@olc@@V?$allocator@UDecalInstance@olc@@@std@@@std@@AEAAAEAUDecalInstance@olc@@AEBU23@@Z
	??$_Emplace_one_at_back@AEBUGPUTask@olc@@@?$vector@UGPUTask@olc@@V?$allocator@UGPUTask@olc@@@std@@@std@@AEAAAEAUGPUTask@olc@@AEBU23@@Z
	??$_Emplace_one_at_back@D@?$vector@DV?$allocator@D@std@@@std@@AEAAAEAD$$QEAD@Z
	??$_Emplace_one_at_back@U?$v_2d@H@olc@@@?$vector@U?$v_2d@H@olc@@V?$allocator@U?$v_2d@H@olc@@@std@@@std@@AEAAAEAU?$v_2d@H@olc@@$$QEAU23@@Z
	??$_Emplace_one_at_back@ULayerDesc@olc@@@?$vector@ULayerDesc@olc@@V?$allocator@ULayerDesc@olc@@@std@@@std@@AEAAAEAULayerDesc@olc@@$$QEAU23@@Z
	??$_Emplace_one_at_back@V?$basic_string@DU?$char_traits@D@std@@V?$allocator@D@2@@std@@@?$vector@V?$basic_string@DU?$char_traits@D@std@@V?$allocator@D@2@@std@@V?$allocator@V?$basic_string@DU?$char_traits@D@std@@V?$allocator@D@2@@std@@@2@@std@@AEAAAEAV?$basic_string@DU?$char_traits@D@std@@V?$allocator@D@2@@1@$$QEAV21@@Z
	??$_Emplace_reallocate@AEBH@?$vector@HV?$allocator@H@std@@@std@@AEAAPEAHQEAHAEBH@Z
	??$_Emplace_reallocate@AEBQEAVPGEX@olc@@@?$vector@PEAVPGEX@olc@@V?$allocator@PEAVPGEX@olc@@@std@@@std@@AEAAPEAPEAVPGEX@olc@@QEAPEAV23@AEBQEAV23@@Z
	??$_Emplace_reallocate@AEBUDecalInstance@olc@@@?$vector@UDecalInstance@olc@@V?$allocator@UDecalInstance@olc@@@std@@@std@@AEAAPEAUDecalInstance@olc@@QEAU23@AEBU23@@Z
	??$_Emplace_reallocate@AEBUGPUTask@olc@@@?$vector@UGPUTask@olc@@V?$allocator@UGPUTask@olc@@@std@@@std@@AEAAPEAUGPUTask@olc@@QEAU23@AEBU23@@Z
	??$_Emplace_reallocate@D@?$vector@DV?$allocator@D@std@@@std@@AEAAPEADQEAD$$QEAD@Z
	??$_Emplace_reallocate@U?$v_2d@H@olc@@@?$vector@U?$v_2d@H@olc@@V?$allocator@U?$v_2d@H@olc@@@std@@@std@@AEAAPEAU?$v_2d@H@olc@@QEAU23@$$QEAU23@@Z
	??$_Emplace_reallocate@ULayerDesc@olc@@@?$vector@ULayerDesc@olc@@V?$allocator@ULayerDesc@olc@@@std@@@std@@AEAAPEAULayerDesc@olc@@QEAU23@$$QEAU23@@Z
	??$_Emplace_reallocate@V?$basic_string@DU?$char_traits@D@std@@V?$allocator@D@2@@std@@@?$vector@V?$basic_string@DU?$char_traits@D@std@@V?$allocator@D@2@@std@@V?$allocator@V?$basic_string@DU?$char_traits@D@std@@V?$allocator@D@2@@std@@@2@@std@@AEAAPEAV?$basic_string@DU?$char_traits@D@std@@V?$allocator@D@2@@1@QEAV21@$$QEAV21@@Z
	??$_Erase_head@V?$allocator@U?$_Tree_node@U?$pair@$$CBV?$basic_string@DU?$char_traits@D@std@@V?$allocator@D@2@@std@@UsResourceFile@ResourcePack@olc@@@std@@PEAX@std@@@std@@@?$_Tree_val@U?$_Tree_simple_types@U?$pair@$$CBV?$basic_string@DU?$char_traits@D@std@@V?$allocator@D@2@@std@@UsResourceFile@ResourcePack@olc@@@std@@@std@@@std@@QEAAXAEAV?$allocator@U?$_Tree_node@U?$pair@$$CBV?$basic_string@DU?$char_traits@D@std@@V?$allocator@D@2@@std@@UsResourceFile@ResourcePack@olc@@@std@@PEAX@std@@@1@@Z
	??$_Erase_head@V?$allocator@U?$_Tree_node@U?$pair@$$CB_KW4Key@olc@@@std@@PEAX@std@@@std@@@?$_Tree_val@U?$_Tree_simple_types@U?$pair@$$CB_KW4Key@olc@@@std@@@std@@@std@@QEAAXAEAV?$allocator@U?$_Tree_node@U?$pair@$$CB_KW4Key@olc@@@std@@PEAX@std@@@1@@Z
	??$_Erase_tree@V?$allocator@U?$_Tree_node@U?$pair@$$CBV?$basic_string@DU?$char_traits@D@std@@V?$allocator@D@2@@std@@UsResourceFile@ResourcePack@olc@@@std@@PEAX@std@@@std@@@?$_Tree_val@U?$_Tree_simple_types@U?$pair@$$CBV?$basic_string@DU?$char_traits@D@std@@V?$allocator@D@2@@std@@UsResourceFile@ResourcePack@olc@@@std@@@std@@@std@@QEAAXAEAV?$allocator@U?$_Tree_node@U?$pair@$$CBV?$basic_string@DU?$char_traits@D@std@@V?$allocator@D@2@@std@@UsResourceFile@ResourcePack@olc@@@std@@PEAX@std@@@1@PEAU?$_Tree_node@U?$pair@$$CBV?$basic_string@DU?$char_traits@D@std@@V?$allocator@D@2@@std@@UsResourceFile@ResourcePack@olc@@@std@@PEAX@1@@Z
	??$_Erase_tree@V?$allocator@U?$_Tree_node@U?$pair@$$CB_KW4Key@olc@@@std@@PEAX@std@@@std@@@?$_Tree_val@U?$_Tree_simple_types@U?$pair@$$CB_KW4Key@olc@@@std@@@std@@@std@@QEAAXAEAV?$allocator@U?$_Tree_node@U?$pair@$$CB_KW4Key@olc@@@std@@PEAX@std@@@1@PEAU?$_Tree_node@U?$pair@$$CB_KW4Key@olc@@@std@@PEAX@1@@Z
	??$_Fgetc@D@std@@YA_NAEADPEAU_iobuf@@@Z
	??$_Find_last@W4Key@olc@@@?$_Hash@V?$_Umap_traits@W4Key@olc@@V?$tuple@V?$basic_string@DU?$char_traits@D@std@@V?$allocator@D@2@@std@@V12@V12@V12@@std@@V?$_Uhash_compare@W4Key@olc@@U?$hash@W4Key@olc@@@std@@U?$equal_to@W4Key@olc@@@4@@4@V?$allocator@U?$pair@$$CBW4Key@olc@@V?$tuple@V?$basic_string@DU?$char_traits@D@std@@V?$allocator@D@2@@std@@V12@V12@V12@@std@@@std@@@4@$0A@@std@@@std@@IEBA?AU?$_Hash_find_last_result@PEAU?$_List_node@U?$pair@$$CBW4Key@olc@@V?$tuple@V?$basic_string@DU?$char_traits@D@std@@V?$allocator@D@2@@std@@V12@V12@V12@@std@@@std@@PEAX@std@@@1@AEBW4Key@olc@@_K@Z
	??$_Find_lower_bound@V?$basic_string@DU?$char_traits@D@std@@V?$allocator@D@2@@std@@@?$_Tree@V?$_Tmap_traits@V?$basic_string@DU?$char_traits@D@std@@V?$allocator@D@2@@std@@UsResourceFile@ResourcePack@olc@@U?$less@V?$basic_string@DU?$char_traits@D@std@@V?$allocator@D@2@@std@@@2@V?$allocator@U?$pair@$$CBV?$basic_string@DU?$char_traits@D@std@@V?$allocator@D@2@@std@@UsResourceFile@ResourcePack@olc@@@std@@@2@$0A@@std@@@std@@IEBA?AU?$_Tree_find_result@PEAU?$_Tree_node@U?$pair@$$CBV?$basic_string@DU?$char_traits@D@std@@V?$allocator@D@2@@std@@UsResourceFile@ResourcePack@olc@@@std@@PEAX@std@@@1@AEBV?$basic_string@DU?$char_traits@D@std@@V?$allocator@D@2@@1@@Z
	??$_Find_lower_bound@_K@?$_Tree@V?$_Tmap_traits@_KW4Key@olc@@U?$less@_K@std@@V?$allocator@U?$pair@$$CB_KW4Key@olc@@@std@@@4@$0A@@std@@@std@@IEBA?AU?$_Tree_find_result@PEAU?$_Tree_node@U?$pair@$$CB_KW4Key@olc@@@std@@PEAX@std@@@1@AEB_K@Z
	??$_Find_unchecked@PEAPEAVPGEX@olc@@PEAV12@@std@@YAPEAPEAVPGEX@olc@@PEAPEAV12@QEAPEAV12@AEBQEAV12@@Z
	??$_Find_vectorized@PEAVPGEX@olc@@PEAV12@@std@@YAPEAPEAVPGEX@olc@@QEAPEAV12@0QEAV12@@Z
	??$_Fnv1a_append_value@W4Key@olc@@@std@@YA_K_KAEBW4Key@olc@@@Z
	??$_Fputc@D@std@@YA_NDPEAU_iobuf@@@Z
	??$_Free_non_head@V?$allocator@U?$_List_node@U?$pair@$$CBW4Key@olc@@V?$tuple@V?$basic_string@DU?$char_traits@D@std@@V?$allocator@D@2@@std@@V12@V12@V12@@std@@@std@@PEAX@std@@@std@@@?$_List_node@U?$pair@$$CBW4Key@olc@@V?$tuple@V?$basic_string@DU?$char_traits@D@std@@V?$allocator@D@2@@std@@V12@V12@V12@@std@@@std@@PEAX@std@@SAXAEAV?$allocator@U?$_List_node@U?$pair@$$CBW4Key@olc@@V?$tuple@V?$basic_string@DU?$char_traits@D@std@@V?$allocator@D@2@@std@@V12@V12@V12@@std@@@std@@PEAX@std@@@1@PEAU01@@Z
	??$_Free_non_head@V?$allocator@U?$_List_node@V?$basic_string@DU?$char_traits@D@std@@V?$allocator@D@2@@std@@PEAX@std@@@std@@@?$_List_node@V?$basic_string@DU?$char_traits@D@std@@V?$allocator@D@2@@std@@PEAX@std@@SAXAEAV?$allocator@U?$_List_node@V?$basic_string@DU?$char_traits@D@std@@V?$allocator@D@2@@std@@PEAX@std@@@1@PEAU01@@Z
	??$_Freenode0@V?$allocator@U?$_List_node@U?$pair@$$CBW4Key@olc@@V?$tuple@V?$basic_string@DU?$char_traits@D@std@@V?$allocator@D@2@@std@@V12@V12@V12@@std@@@std@@PEAX@std@@@std@@@?$_List_node@U?$pair@$$CBW4Key@olc@@V?$tuple@V?$basic_string@DU?$char_traits@D@std@@V?$allocator@D@2@@std@@V12@V12@V12@@std@@@std@@PEAX@std@@SAXAEAV?$allocator@U?$_List_node@U?$pair@$$CBW4Key@olc@@V?$tuple@V?$basic_string@DU?$char_traits@D@std@@V?$allocator@D@2@@std@@V12@V12@V12@@std@@@std@@PEAX@std@@@1@PEAU01@@Z
	??$_Freenode0@V?$allocator@U?$_List_node@V?$basic_string@DU?$char_traits@D@std@@V?$allocator@D@2@@std@@PEAX@std@@@std@@@?$_List_node@V?$basic_string@DU?$char_traits@D@std@@V?$allocator@D@2@@std@@PEAX@std@@SAXAEAV?$allocator@U?$_List_node@V?$basic_string@DU?$char_traits@D@std@@V?$allocator@D@2@@std@@PEAX@std@@@1@PEAU01@@Z
	??$_Freenode0@V?$allocator@U?$_Tree_node@U?$pair@$$CBV?$basic_string@DU?$char_traits@D@std@@V?$allocator@D@2@@std@@UsResourceFile@ResourcePack@olc@@@std@@PEAX@std@@@std@@@?$_Tree_node@U?$pair@$$CBV?$basic_string@DU?$char_traits@D@std@@V?$allocator@D@2@@std@@UsResourceFile@ResourcePack@olc@@@std@@PEAX@std@@SAXAEAV?$allocator@U?$_Tree_node@U?$pair@$$CBV?$basic_string@DU?$char_traits@D@std@@V?$allocator@D@2@@std@@UsResourceFile@ResourcePack@olc@@@std@@PEAX@std@@@1@PEAU01@@Z
	??$_Freenode0@V?$allocator@U?$_Tree_node@U?$pair@$$CB_KW4Key@olc@@@std@@PEAX@std@@@std@@@?$_Tree_node@U?$pair@$$CB_KW4Key@olc@@@std@@PEAX@std@@SAXAEAV?$allocator@U?$_Tree_node@U?$pair@$$CB_KW4Key@olc@@@std@@PEAX@std@@@1@PEAU01@@Z
	??$_Freenode@V?$allocator@U?$_List_node@U?$pair@$$CBW4Key@olc@@V?$tuple@V?$basic_string@DU?$char_traits@D@std@@V?$allocator@D@2@@std@@V12@V12@V12@@std@@@std@@PEAX@std@@@std@@@?$_List_node@U?$pair@$$CBW4Key@olc@@V?$tuple@V?$basic_string@DU?$char_traits@D@std@@V?$allocator@D@2@@std@@V12@V12@V12@@std@@@std@@PEAX@std@@SAXAEAV?$allocator@U?$_List_node@U?$pair@$$CBW4Key@olc@@V?$tuple@V?$basic_string@DU?$char_traits@D@std@@V?$allocator@D@2@@std@@V12@V12@V12@@std@@@std@@PEAX@std@@@1@PEAU01@@Z
	??$_Freenode@V?$allocator@U?$_List_node@V?$basic_string@DU?$char_traits@D@std@@V?$allocator@D@2@@std@@PEAX@std@@@std@@@?$_List_node@V?$basic_string@DU?$char_traits@D@std@@V?$allocator@D@2@@std@@PEAX@std@@SAXAEAV?$allocator@U?$_List_node@V?$basic_string@DU?$char_traits@D@std@@V?$allocator@D@2@@std@@PEAX@std@@@1@PEAU01@@Z
	??$_Freenode@V?$allocator@U?$_Tree_node@U?$pair@$$CBV?$basic_string@DU?$char_traits@D@std@@V?$allocator@D@2@@std@@UsResourceFile@ResourcePack@olc@@@std@@PEAX@std@@@std@@@?$_Tree_node@U?$pair@$$CBV?$basic_string@DU?$char_traits@D@std@@V?$allocator@D@2@@std@@UsResourceFile@ResourcePack@olc@@@std@@PEAX@std@@SAXAEAV?$allocator@U?$_Tree_node@U?$pair@$$CBV?$basic_string@DU?$char_traits@D@std@@V?$allocator@D@2@@std@@UsResourceFile@ResourcePack@olc@@@std@@PEAX@std@@@1@PEAU01@@Z
	??$_Freenode@V?$allocator@U?$_Tree_node@U?$pair@$$CB_KW4Key@olc@@@std@@PEAX@std@@@std@@@?$_Tree_node@U?$pair@$$CB_KW4Key@olc@@@std@@PEAX@std@@SAXAEAV?$allocator@U?$_Tree_node@U?$pair@$$CB_KW4Key@olc@@@std@@PEAX@std@@@1@PEAU01@@Z
	??$_Get_index@$0A@@id@locale@std@@QEAA_KXZ
	??$_Get_proxy_allocator@V?$allocator@D@std@@@std@@YA?AV?$allocator@U_Container_proxy@std@@@0@AEBV?$allocator@D@0@@Z
	??$_Get_proxy_allocator@V?$allocator@E@std@@@std@@YA?AV?$allocator@U_Container_proxy@std@@@0@AEBV?$allocator@E@0@@Z
	??$_Get_proxy_allocator@V?$allocator@H@std@@@std@@YA?AV?$allocator@U_Container_proxy@std@@@0@AEBV?$allocator@H@0@@Z
	??$_Get_proxy_allocator@V?$allocator@M@std@@@std@@YA?AV?$allocator@U_Container_proxy@std@@@0@AEBV?$allocator@M@0@@Z
	??$_Get_proxy_allocator@V?$allocator@PEAVPGEX@olc@@@std@@@std@@YA?AV?$allocator@U_Container_proxy@std@@@0@AEBV?$allocator@PEAVPGEX@olc@@@0@@Z
	??$_Get_proxy_allocator@V?$allocator@PEAX@std@@@std@@YA?AV?$allocator@U_Container_proxy@std@@@0@AEBV?$allocator@PEAX@0@@Z
	??$_Get_proxy_allocator@V?$allocator@U?$_List_node@U?$pair@$$CBW4Key@olc@@V?$tuple@V?$basic_string@DU?$char_traits@D@std@@V?$allocator@D@2@@std@@V12@V12@V12@@std@@@std@@PEAX@std@@@std@@@std@@YA?AV?$allocator@U_Container_proxy@std@@@0@AEBV?$allocator@U?$_List_node@U?$pair@$$CBW4Key@olc@@V?$tuple@V?$basic_string@DU?$char_traits@D@std@@V?$allocator@D@2@@std@@V12@V12@V12@@std@@@std@@PEAX@std@@@0@@Z
	??$_Get_proxy_allocator@V?$allocator@U?$_List_node@V?$basic_string@DU?$char_traits@D@std@@V?$allocator@D@2@@std@@PEAX@std@@@std@@@std@@YA?AV?$allocator@U_Container_proxy@std@@@0@AEBV?$allocator@U?$_List_node@V?$basic_string@DU?$char_traits@D@std@@V?$allocator@D@2@@std@@PEAX@std@@@0@@Z
	??$_Get_proxy_allocator@V?$allocator@U?$_Tree_node@U?$pair@$$CBV?$basic_string@DU?$char_traits@D@std@@V?$allocator@D@2@@std@@UsResourceFile@ResourcePack@olc@@@std@@PEAX@std@@@std@@@std@@YA?AV?$allocator@U_Container_proxy@std@@@0@AEBV?$allocator@U?$_Tree_node@U?$pair@$$CBV?$basic_string@DU?$char_traits@D@std@@V?$allocator@D@2@@std@@UsResourceFile@ResourcePack@olc@@@std@@PEAX@std@@@0@@Z
	??$_Get_proxy_allocator@V?$allocator@U?$_Tree_node@U?$pair@$$CB_KW4Key@olc@@@std@@PEAX@std@@@std@@@std@@YA?AV?$allocator@U_Container_proxy@std@@@0@AEBV?$allocator@U?$_Tree_node@U?$pair@$$CB_KW4Key@olc@@@std@@PEAX@std@@@0@@Z
	??$_Get_proxy_allocator@V?$allocator@U?$v_2d@H@olc@@@std@@@std@@YA?AV?$allocator@U_Container_proxy@std@@@0@AEBV?$allocator@U?$v_2d@H@olc@@@0@@Z
	??$_Get_proxy_allocator@V?$allocator@U?$v_2d@M@olc@@@std@@@std@@YA?AV?$allocator@U_Container_proxy@std@@@0@AEBV?$allocator@U?$v_2d@M@olc@@@0@@Z
	??$_Get_proxy_allocator@V?$allocator@UDecalInstance@olc@@@std@@@std@@YA?AV?$allocator@U_Container_proxy@std@@@0@AEBV?$allocator@UDecalInstance@olc@@@0@@Z
	??$_Get_proxy_allocator@V?$allocator@UGPUTask@olc@@@std@@@std@@YA?AV?$allocator@U_Container_proxy@std@@@0@AEBV?$allocator@UGPUTask@olc@@@0@@Z
	??$_Get_proxy_allocator@V?$allocator@ULayerDesc@olc@@@std@@@std@@YA?AV?$allocator@U_Container_proxy@std@@@0@AEBV?$allocator@ULayerDesc@olc@@@0@@Z
	??$_Get_proxy_allocator@V?$allocator@UPixel@olc@@@std@@@std@@YA?AV?$allocator@U_Container_proxy@std@@@0@AEBV?$allocator@UPixel@olc@@@0@@Z
	??$_Get_proxy_allocator@V?$allocator@UVertex@GPUTask@olc@@@std@@@std@@YA?AV?$allocator@U_Container_proxy@std@@@0@AEBV?$allocator@UVertex@GPUTask@olc@@@0@@Z
	??$_Get_proxy_allocator@V?$allocator@V?$_List_unchecked_iterator@V?$_List_val@U?$_List_simple_types@U?$pair@$$CBW4Key@olc@@V?$tuple@V?$basic_string@DU?$char_traits@D@std@@V?$allocator@D@2@@std@@V12@V12@V12@@std@@@std@@@std@@@std@@@std@@@std@@@std@@YA?AV?$allocator@U_Container_proxy@std@@@0@AEBV?$allocator@V?$_List_unchecked_iterator@V?$_List_val@U?$_List_simple_types@U?$pair@$$CBW4Key@olc@@V?$tuple@V?$basic_string@DU?$char_traits@D@std@@V?$allocator@D@2@@std@@V12@V12@V12@@std@@@std@@@std@@@std@@@std@@@0@@Z
	??$_Get_proxy_allocator@V?$allocator@V?$basic_string@DU?$char_traits@D@std@@V?$allocator@D@2@@std@@@std@@@std@@YA?AV?$allocator@U_Container_proxy@std@@@0@AEBV?$allocator@V?$basic_string@DU?$char_traits@D@std@@V?$allocator@D@2@@std@@@0@@Z
	??$_Get_proxy_allocator@V?$allocator@_W@std@@@std@@YA?AV?$allocator@U_Container_proxy@std@@@0@AEBV?$allocator@_W@0@@Z
	??$_Get_size_of_n@$00@std@@YA_K_K@Z
	??$_Get_size_of_n@$01@std@@YA_K_K@Z
	??$_Get_size_of_n@$03@std@@YA_K_K@Z
	??$_Get_size_of_n@$07@std@@YA_K_K@Z
	??$_Get_size_of_n@$0BA@@std@@YA_K_K@Z
	??$_Get_size_of_n@$0BM@@std@@YA_K_K@Z
	??$_Get_size_of_n@$0CI@@std@@YA_K_K@Z
	??$_Get_size_of_n@$0DA@@std@@YA_K_K@Z
	??$_Get_size_of_n@$0DI@@std@@YA_K_K@Z
	??$_Get_size_of_n@$0FA@@std@@YA_K_K@Z
	??$_Get_size_of_n@$0IA@@std@@YA_K_K@Z
	??$_Get_size_of_n@$0LI@@std@@YA_K_K@Z
	??$_Get_unwrapped@AEAPEAD@std@@YA?A_TAEAPEAD@Z
	??$_Get_unwrapped@AEAV?$_Array_const_iterator@U?$v_2d@M@olc@@$03@std@@@std@@YA?A_TAEAV?$_Array_const_iterator@U?$v_2d@M@olc@@$03@0@@Z
	??$_Get_unwrapped@AEAV?$_Vector_iterator@V?$_Vector_val@U?$_Simple_types@PEAVPGEX@olc@@@std@@@std@@@std@@@std@@YA?A_TAEAV?$_Vector_iterator@V?$_Vector_val@U?$_Simple_types@PEAVPGEX@olc@@@std@@@std@@@0@@Z
	??$_Get_unwrapped@AEBQEAD@std@@YA?A_TAEBQEAD@Z
	??$_Get_unwrapped@AEBQEAH@std@@YA?A_TAEBQEAH@Z
	??$_Get_unwrapped@AEBQEAM@std@@YA?A_TAEBQEAM@Z
	??$_Get_unwrapped@AEBQEAPEAVPGEX@olc@@@std@@YA?A_TAEBQEAPEAVPGEX@olc@@@Z
	??$_Get_unwrapped@AEBQEAU?$v_2d@H@olc@@@std@@YA?A_TAEBQEAU?$v_2d@H@olc@@@Z
	??$_Get_unwrapped@AEBQEAU?$v_2d@M@olc@@@std@@YA?A_TAEBQEAU?$v_2d@M@olc@@@Z
	??$_Get_unwrapped@AEBQEAUDecalInstance@olc@@@std@@YA?A_TAEBQEAUDecalInstance@olc@@@Z
	??$_Get_unwrapped@AEBQEAUGPUTask@olc@@@std@@YA?A_TAEBQEAUGPUTask@olc@@@Z
	??$_Get_unwrapped@AEBQEAULayerDesc@olc@@@std@@YA?A_TAEBQEAULayerDesc@olc@@@Z
	??$_Get_unwrapped@AEBQEAUPixel@olc@@@std@@YA?A_TAEBQEAUPixel@olc@@@Z
	??$_Get_unwrapped@AEBQEAUVertex@GPUTask@olc@@@std@@YA?A_TAEBQEAUVertex@GPUTask@olc@@@Z
	??$_Get_unwrapped@AEBQEAV?$_List_unchecked_iterator@V?$_List_val@U?$_List_simple_types@U?$pair@$$CBW4Key@olc@@V?$tuple@V?$basic_string@DU?$char_traits@D@std@@V?$allocator@D@2@@std@@V12@V12@V12@@std@@@std@@@std@@@std@@@std@@@std@@YA?A_TAEBQEAV?$_List_unchecked_iterator@V?$_List_val@U?$_List_simple_types@U?$pair@$$CBW4Key@olc@@V?$tuple@V?$basic_string@DU?$char_traits@D@std@@V?$allocator@D@2@@std@@V12@V12@V12@@std@@@std@@@std@@@std@@@0@@Z
	??$_Get_unwrapped@AEBQEAV?$basic_string@DU?$char_traits@D@std@@V?$allocator@D@2@@std@@@std@@YA?A_TAEBQEAV?$basic_string@DU?$char_traits@D@std@@V?$allocator@D@2@@0@@Z
	??$_Get_unwrapped@AEBV?$_Vector_const_iterator@V?$_Vector_val@U?$_Simple_types@UPixel@olc@@@std@@@std@@@std@@@std@@YA?A_TAEBV?$_Vector_const_iterator@V?$_Vector_val@U?$_Simple_types@UPixel@olc@@@std@@@std@@@0@@Z
	??$_Get_unwrapped@AEBV?$_Vector_iterator@V?$_Vector_val@U?$_Simple_types@PEAVPGEX@olc@@@std@@@std@@@std@@@std@@YA?A_TAEBV?$_Vector_iterator@V?$_Vector_val@U?$_Simple_types@PEAVPGEX@olc@@@std@@@std@@@0@@Z
	??$_Get_unwrapped@PEAD@std@@YA?A_T$$QEAPEAD@Z
	??$_Get_unwrapped@PEAM@std@@YA?A_T$$QEAPEAM@Z
	??$_Get_unwrapped@PEAU?$v_2d@M@olc@@@std@@YA?A_T$$QEAPEAU?$v_2d@M@olc@@@Z
	??$_Get_unwrapped@PEAUPixel@olc@@@std@@YA?A_T$$QEAPEAUPixel@olc@@@Z
	??$_Get_unwrapped@PEAUVertex@GPUTask@olc@@@std@@YA?A_T$$QEAPEAUVertex@GPUTask@olc@@@Z
	??$_Get_unwrapped@PEAV?$basic_string@DU?$char_traits@D@std@@V?$allocator@D@2@@std@@@std@@YA?A_T$$QEAPEAV?$basic_string@DU?$char_traits@D@std@@V?$allocator@D@2@@0@@Z
	??$_Get_unwrapped@PEBM@std@@YA?A_T$$QEAPEBM@Z
	??$_Get_unwrapped@PEBQEAX@std@@YA?A_T$$QEAPEBQEAX@Z
	??$_Get_unwrapped@PEBU?$v_2d@M@olc@@@std@@YA?A_T$$QEAPEBU?$v_2d@M@olc@@@Z
	??$_Get_unwrapped@PEBUPixel@olc@@@std@@YA?A_T$$QEAPEBUPixel@olc@@@Z
	??$_Get_unwrapped@PEBUVertex@GPUTask@olc@@@std@@YA?A_T$$QEAPEBUVertex@GPUTask@olc@@@Z
	??$_Get_unwrapped_n@AEAV?$_Vector_iterator@V?$_Vector_val@U?$_Simple_types@UPixel@olc@@@std@@@std@@@std@@_J@std@@YA?A_TAEAV?$_Vector_iterator@V?$_Vector_val@U?$_Simple_types@UPixel@olc@@@std@@@std@@@0@_J@Z
	??$_Getvals@_W@?$time_get@DV?$istreambuf_iterator@DU?$char_traits@D@std@@@std@@@std@@IEAAX_WAEBV_Locinfo@1@@Z
	??$_Getvals@_W@?$time_get@_WV?$istreambuf_iterator@_WU?$char_traits@_W@std@@@std@@@std@@IEAAX_WAEBV_Locinfo@1@@Z
	??$_Hash_representation@W4Key@olc@@@std@@YA_KAEBW4Key@olc@@@Z
	??$_Idl_distance@V?$_Vector_const_iterator@V?$_Vector_val@U?$_Simple_types@UPixel@olc@@@std@@@std@@@std@@PEBUPixel@olc@@@std@@YA?A_PAEBQEBUPixel@olc@@0@Z
	??$_Immortalize_memcpy_image@V_Generic_error_category@std@@@std@@YAAEBV_Generic_error_category@0@XZ
	??$_Immortalize_memcpy_image@V_System_error_category@std@@@std@@YAAEBV_System_error_category@0@XZ
	??$_In_range@H_K@std@@YA_N_K@Z
	??$_Insert@D@?$basic_string@DU?$char_traits@D@std@@V?$allocator@D@2@@std@@AEAAAEAV01@_KQEBD0@Z
	??$_Insert_range_unchecked@PEBU?$pair@$$CBW4Key@olc@@V?$tuple@V?$basic_string@DU?$char_traits@D@std@@V?$allocator@D@2@@std@@V12@V12@V12@@std@@@std@@PEBU12@@?$_Hash@V?$_Umap_traits@W4Key@olc@@V?$tuple@V?$basic_string@DU?$char_traits@D@std@@V?$allocator@D@2@@std@@V12@V12@V12@@std@@V?$_Uhash_compare@W4Key@olc@@U?$hash@W4Key@olc@@@std@@U?$equal_to@W4Key@olc@@@4@@4@V?$allocator@U?$pair@$$CBW4Key@olc@@V?$tuple@V?$basic_string@DU?$char_traits@D@std@@V?$allocator@D@2@@std@@V12@V12@V12@@std@@@std@@@4@$0A@@std@@@std@@IEAAXPEBU?$pair@$$CBW4Key@olc@@V?$tuple@V?$basic_string@DU?$char_traits@D@std@@V?$allocator@D@2@@std@@V12@V12@V12@@std@@@1@QEBU21@@Z
	??$_Insert_string@DU?$char_traits@D@std@@_K@std@@YAAEAV?$basic_ostream@DU?$char_traits@D@std@@@0@AEAV10@QEBD_K@Z
	??$_Integral_to_string@DH@std@@YA?AV?$basic_string@DU?$char_traits@D@std@@V?$allocator@D@2@@0@H@Z
	??$_Invoke@V?$tuple@P8PixelGameEngine@olc@@EAAXXZPEAV12@@std@@$0A@$00@thread@std@@CAIPEAX@Z
	??$_Kfn@$$CBV?$basic_string@DU?$char_traits@D@std@@V?$allocator@D@2@@std@@UsResourceFile@ResourcePack@olc@@@?$_Tmap_traits@V?$basic_string@DU?$char_traits@D@std@@V?$allocator@D@2@@std@@UsResourceFile@ResourcePack@olc@@U?$less@V?$basic_string@DU?$char_traits@D@std@@V?$allocator@D@2@@std@@@2@V?$allocator@U?$pair@$$CBV?$basic_string@DU?$char_traits@D@std@@V?$allocator@D@2@@std@@UsResourceFile@ResourcePack@olc@@@std@@@2@$0A@@std@@SAAEBV?$basic_string@DU?$char_traits@D@std@@V?$allocator@D@2@@1@AEBU?$pair@$$CBV?$basic_string@DU?$char_traits@D@std@@V?$allocator@D@2@@std@@UsResourceFile@ResourcePack@olc@@@1@@Z
	??$_Kfn@$$CBW4Key@olc@@V?$tuple@V?$basic_string@DU?$char_traits@D@std@@V?$allocator@D@2@@std@@V12@V12@V12@@std@@@?$_Umap_traits@W4Key@olc@@V?$tuple@V?$basic_string@DU?$char_traits@D@std@@V?$allocator@D@2@@std@@V12@V12@V12@@std@@V?$_Uhash_compare@W4Key@olc@@U?$hash@W4Key@olc@@@std@@U?$equal_to@W4Key@olc@@@4@@4@V?$allocator@U?$pair@$$CBW4Key@olc@@V?$tuple@V?$basic_string@DU?$char_traits@D@std@@V?$allocator@D@2@@std@@V12@V12@V12@@std@@@std@@@4@$0A@@std@@SAAEBW4Key@olc@@AEBU?$pair@$$CBW4Key@olc@@V?$tuple@V?$basic_string@DU?$char_traits@D@std@@V?$allocator@D@2@@std@@V12@V12@V12@@std@@@1@@Z
	??$_Kfn@$$CB_KW4Key@olc@@@?$_Tmap_traits@_KW4Key@olc@@U?$less@_K@std@@V?$allocator@U?$pair@$$CB_KW4Key@olc@@@std@@@4@$0A@@std@@SAAEB_KAEBU?$pair@$$CB_KW4Key@olc@@@1@@Z
	??$_Lower_bound_duplicate@V?$basic_string@DU?$char_traits@D@std@@V?$allocator@D@2@@std@@@?$_Tree@V?$_Tmap_traits@V?$basic_string@DU?$char_traits@D@std@@V?$allocator@D@2@@std@@UsResourceFile@ResourcePack@olc@@U?$less@V?$basic_string@DU?$char_traits@D@std@@V?$allocator@D@2@@std@@@2@V?$allocator@U?$pair@$$CBV?$basic_string@DU?$char_traits@D@std@@V?$allocator@D@2@@std@@UsResourceFile@ResourcePack@olc@@@std@@@2@$0A@@std@@@std@@IEBA_NQEAU?$_Tree_node@U?$pair@$$CBV?$basic_string@DU?$char_traits@D@std@@V?$allocator@D@2@@std@@UsResourceFile@ResourcePack@olc@@@std@@PEAX@1@AEBV?$basic_string@DU?$char_traits@D@std@@V?$allocator@D@2@@1@@Z
	??$_Lower_bound_duplicate@_K@?$_Tree@V?$_Tmap_traits@_KW4Key@olc@@U?$less@_K@std@@V?$allocator@U?$pair@$$CB_KW4Key@olc@@@std@@@4@$0A@@std@@@std@@IEBA_NQEAU?$_Tree_node@U?$pair@$$CB_KW4Key@olc@@@std@@PEAX@1@AEB_K@Z
	??$_Max_limit@_J@std@@YA_JXZ
	??$_Pocca@V?$allocator@D@std@@@std@@YAXAEAV?$allocator@D@0@AEBV10@@Z
	??$_Pocca@V?$allocator@V?$basic_string@DU?$char_traits@D@std@@V?$allocator@D@2@@std@@@std@@@std@@YAXAEAV?$allocator@V?$basic_string@DU?$char_traits@D@std@@V?$allocator@D@2@@std@@@0@AEBV10@@Z
	??$_Pocma@V?$allocator@UPixel@olc@@@std@@@std@@YAXAEAV?$allocator@UPixel@olc@@@0@0@Z
	??$_Pocs@V?$allocator@UPixel@olc@@@std@@@std@@YAXAEAV?$allocator@UPixel@olc@@@0@0@Z
	??$_Reallocate_for@V<lambda_a132b9f505f015b07a26cb4edca31da2>@@PEBD@?$basic_string@DU?$char_traits@D@std@@V?$allocator@D@2@@std@@AEAAAEAV01@_KV<lambda_a132b9f505f015b07a26cb4edca31da2>@@PEBD@Z
	??$_Reallocate_grow_by@V<lambda_319d5e083f45f90dcdce5dce53cbb275>@@D@?$basic_string@DU?$char_traits@D@std@@V?$allocator@D@2@@std@@AEAAAEAV01@_KV<lambda_319d5e083f45f90dcdce5dce53cbb275>@@D@Z
	??$_Reallocate_grow_by@V<lambda_6e107f859707de1a71dcca60860853b1>@@PEBD_K@?$basic_string@DU?$char_traits@D@std@@V?$allocator@D@2@@std@@AEAAAEAV01@_KV<lambda_6e107f859707de1a71dcca60860853b1>@@PEBD_K@Z
	??$_Reallocate_grow_by@V<lambda_9013ee9e23efe4882b67eff5b0ecf103>@@$$V@?$basic_string@DU?$char_traits@D@std@@V?$allocator@D@2@@std@@AEAAAEAV01@_KV<lambda_9013ee9e23efe4882b67eff5b0ecf103>@@@Z
	??$_Reallocate_grow_by@V<lambda_a3050a43f3157934f354774ab3dd2e02>@@_K_W@?$basic_string@_WU?$char_traits@_W@std@@V?$allocator@_W@2@@std@@AEAAAEAV01@_KV<lambda_a3050a43f3157934f354774ab3dd2e02>@@_K_W@Z
	??$_Reallocate_grow_by@V<lambda_e1befb086ad3257e3f042a63030725f7>@@_KD@?$basic_string@DU?$char_traits@D@std@@V?$allocator@D@2@@std@@AEAAAEAV01@_KV<lambda_e1befb086ad3257e3f042a63030725f7>@@_KD@Z
	??$_Reallocate_grow_by@V<lambda_e9b99a188f9a316a73b83d1e72db26de>@@_KPEBD_K@?$basic_string@DU?$char_traits@D@std@@V?$allocator@D@2@@std@@AEAAAEAV01@_KV<lambda_e9b99a188f9a316a73b83d1e72db26de>@@_KPEBD2@Z
	??$_Refancy_maybe_null@PEAPEAVPGEX@olc@@$0A@@std@@YAPEAPEAVPGEX@olc@@PEAPEAV12@@Z
	??$_Refancy_maybe_null@PEAUPixel@olc@@$0A@@std@@YAPEAUPixel@olc@@PEAU12@@Z
	??$_Resize@UPixel@olc@@@?$vector@UPixel@olc@@V?$allocator@UPixel@olc@@@std@@@std@@AEAAX_KAEBUPixel@olc@@@Z
	??$_Resize@U_Value_init_tag@std@@@?$vector@DV?$allocator@D@std@@@std@@AEAAX_KAEBU_Value_init_tag@1@@Z
	??$_Resize@U_Value_init_tag@std@@@?$vector@MV?$allocator@M@std@@@std@@AEAAX_KAEBU_Value_init_tag@1@@Z
	??$_Resize@U_Value_init_tag@std@@@?$vector@U?$v_2d@M@olc@@V?$allocator@U?$v_2d@M@olc@@@std@@@std@@AEAAX_KAEBU_Value_init_tag@1@@Z
	??$_Resize@U_Value_init_tag@std@@@?$vector@UPixel@olc@@V?$allocator@UPixel@olc@@@std@@@std@@AEAAX_KAEBU_Value_init_tag@1@@Z
	??$_Resize@U_Value_init_tag@std@@@?$vector@UVertex@GPUTask@olc@@V?$allocator@UVertex@GPUTask@olc@@@std@@@std@@AEAAX_KAEBU_Value_init_tag@1@@Z
	??$_Resize@U_Value_init_tag@std@@@?$vector@V?$basic_string@DU?$char_traits@D@std@@V?$allocator@D@2@@std@@V?$allocator@V?$basic_string@DU?$char_traits@D@std@@V?$allocator@D@2@@std@@@2@@std@@AEAAX_KAEBU_Value_init_tag@1@@Z
	??$_Resize_reallocate@UPixel@olc@@@?$vector@UPixel@olc@@V?$allocator@UPixel@olc@@@std@@@std@@AEAAX_KAEBUPixel@olc@@@Z
	??$_Resize_reallocate@U_Value_init_tag@std@@@?$vector@DV?$allocator@D@std@@@std@@AEAAX_KAEBU_Value_init_tag@1@@Z
	??$_Resize_reallocate@U_Value_init_tag@std@@@?$vector@MV?$allocator@M@std@@@std@@AEAAX_KAEBU_Value_init_tag@1@@Z
	??$_Resize_reallocate@U_Value_init_tag@std@@@?$vector@U?$v_2d@M@olc@@V?$allocator@U?$v_2d@M@olc@@@std@@@std@@AEAAX_KAEBU_Value_init_tag@1@@Z
	??$_Resize_reallocate@U_Value_init_tag@std@@@?$vector@UPixel@olc@@V?$allocator@UPixel@olc@@@std@@@std@@AEAAX_KAEBU_Value_init_tag@1@@Z
	??$_Resize_reallocate@U_Value_init_tag@std@@@?$vector@UVertex@GPUTask@olc@@V?$allocator@UVertex@GPUTask@olc@@@std@@@std@@AEAAX_KAEBU_Value_init_tag@1@@Z
	??$_Resize_reallocate@U_Value_init_tag@std@@@?$vector@V?$basic_string@DU?$char_traits@D@std@@V?$allocator@D@2@@std@@V?$allocator@V?$basic_string@DU?$char_traits@D@std@@V?$allocator@D@2@@std@@@2@@std@@AEAAX_KAEBU_Value_init_tag@1@@Z
	??$_Seek_wrapped@V?$_Vector_iterator@V?$_Vector_val@U?$_Simple_types@PEAVPGEX@olc@@@std@@@std@@@std@@PEAPEAVPGEX@olc@@@std@@YAXAEAV?$_Vector_iterator@V?$_Vector_val@U?$_Simple_types@PEAVPGEX@olc@@@std@@@std@@@0@$$QEAPEAPEAVPGEX@olc@@@Z
	??$_Seek_wrapped@V?$_Vector_iterator@V?$_Vector_val@U?$_Simple_types@UPixel@olc@@@std@@@std@@@std@@AEAPEAUPixel@olc@@@std@@YAXAEAV?$_Vector_iterator@V?$_Vector_val@U?$_Simple_types@UPixel@olc@@@std@@@std@@@0@AEAPEAUPixel@olc@@@Z
	??$_Start@P8PixelGameEngine@olc@@EAAXXZPEAV12@@thread@std@@AEAAX$$QEAP8PixelGameEngine@olc@@EAAXXZ$$QEAPEAV23@@Z
	??$_Stringoid_from_Source@DU?$char_traits@D@std@@V?$allocator@D@2@@filesystem@std@@YA?A_PAEBV?$basic_string@DU?$char_traits@D@std@@V?$allocator@D@2@@1@@Z
	??$_To_absolute_time@_JU?$ratio@$00$0DOI@@std@@@std@@YA?A_PAEBV?$duration@_JU?$ratio@$00$0DOI@@std@@@chrono@0@@Z
	??$_To_address@PEAD@std@@YA?A_PAEBQEAD@Z
	??$_To_address@PEAE@std@@YA?A_PAEBQEAE@Z
	??$_To_address@PEAH@std@@YA?A_PAEBQEAH@Z
	??$_To_address@PEAM@std@@YA?A_PAEBQEAM@Z
	??$_To_address@PEAPEAVPGEX@olc@@@std@@YA?A_PAEBQEAPEAVPGEX@olc@@@Z
	??$_To_address@PEAPEAX@std@@YA?A_PAEBQEAPEAX@Z
	??$_To_address@PEAU?$v_2d@H@olc@@@std@@YA?A_PAEBQEAU?$v_2d@H@olc@@@Z
	??$_To_address@PEAU?$v_2d@M@olc@@@std@@YA?A_PAEBQEAU?$v_2d@M@olc@@@Z
	??$_To_address@PEAUPixel@olc@@@std@@YA?A_PAEBQEAUPixel@olc@@@Z
	??$_To_address@PEAUVertex@GPUTask@olc@@@std@@YA?A_PAEBQEAUVertex@GPUTask@olc@@@Z
	??$_To_address@PEBM@std@@YA?A_PAEBQEBM@Z
	??$_To_address@PEBQEAX@std@@YA?A_PAEBQEBQEAX@Z
	??$_To_address@PEBU?$v_2d@M@olc@@@std@@YA?A_PAEBQEBU?$v_2d@M@olc@@@Z
	??$_To_address@PEBUPixel@olc@@@std@@YA?A_PAEBQEBUPixel@olc@@@Z
	??$_To_address@PEBUVertex@GPUTask@olc@@@std@@YA?A_PAEBQEBUVertex@GPUTask@olc@@@Z
	??$_Traits_compare@U?$char_traits@D@std@@@std@@YAHQEBD_K01@Z
	??$_Traits_copy_batch@U?$char_traits@D@std@@D@std@@YAXQEADQEBD_K@Z
	??$_Traits_copy_batch@U?$char_traits@_W@std@@_W@std@@YAXQEA_WQEB_W_K@Z
	??$_Traits_equal@U?$char_traits@D@std@@@std@@YA_NQEBD_K01@Z
	??$_Traits_move_batch@U?$char_traits@D@std@@D@std@@YAXQEADQEBD_K@Z
	??$_Try_emplace@AEBV?$basic_string@DU?$char_traits@D@std@@V?$allocator@D@2@@std@@$$V@?$map@V?$basic_string@DU?$char_traits@D@std@@V?$allocator@D@2@@std@@UsResourceFile@ResourcePack@olc@@U?$less@V?$basic_string@DU?$char_traits@D@std@@V?$allocator@D@2@@std@@@2@V?$allocator@U?$pair@$$CBV?$basic_string@DU?$char_traits@D@std@@V?$allocator@D@2@@std@@UsResourceFile@ResourcePack@olc@@@std@@@2@@std@@AEAA?AU?$pair@PEAU?$_Tree_node@U?$pair@$$CBV?$basic_string@DU?$char_traits@D@std@@V?$allocator@D@2@@std@@UsResourceFile@ResourcePack@olc@@@std@@PEAX@std@@_N@1@AEBV?$basic_string@DU?$char_traits@D@std@@V?$allocator@D@2@@1@@Z
	??$_Try_emplace@_K$$V@?$map@_KW4Key@olc@@U?$less@_K@std@@V?$allocator@U?$pair@$$CB_KW4Key@olc@@@std@@@4@@std@@AEAA?AU?$pair@PEAU?$_Tree_node@U?$pair@$$CB_KW4Key@olc@@@std@@PEAX@std@@_N@1@$$QEA_K@Z
	??$_Tuple_get@$0A@$$QEA_K@std@@YA$$QEA_P$$QEAV?$tuple@$$QEA_K@0@@Z
	??$_Tuple_get@$0A@AEBV?$basic_string@DU?$char_traits@D@std@@V?$allocator@D@2@@std@@@std@@YA$$QEA_P$$QEAV?$tuple@AEBV?$basic_string@DU?$char_traits@D@std@@V?$allocator@D@2@@std@@@0@@Z
	??$_UIntegral_to_buff@DI@std@@YAPEADPEADI@Z
	??$_Unfancy@D@std@@YAPEADPEAD@Z
	??$_Unfancy@E@std@@YAPEAEPEAE@Z
	??$_Unfancy@H@std@@YAPEAHPEAH@Z
	??$_Unfancy@M@std@@YAPEAMPEAM@Z
	??$_Unfancy@PEAVPGEX@olc@@@std@@YAPEAPEAVPGEX@olc@@PEAPEAV12@@Z
	??$_Unfancy@PEAX@std@@YAPEAPEAXPEAPEAX@Z
	??$_Unfancy@U?$v_2d@H@olc@@@std@@YAPEAU?$v_2d@H@olc@@PEAU12@@Z
	??$_Unfancy@U?$v_2d@M@olc@@@std@@YAPEAU?$v_2d@M@olc@@PEAU12@@Z
	??$_Unfancy@UDecalInstance@olc@@@std@@YAPEAUDecalInstance@olc@@PEAU12@@Z
	??$_Unfancy@UGPUTask@olc@@@std@@YAPEAUGPUTask@olc@@PEAU12@@Z
	??$_Unfancy@ULayerDesc@olc@@@std@@YAPEAULayerDesc@olc@@PEAU12@@Z
	??$_Unfancy@UPixel@olc@@@std@@YAPEAUPixel@olc@@PEAU12@@Z
	??$_Unfancy@UVertex@GPUTask@olc@@@std@@YAPEAUVertex@GPUTask@olc@@PEAU123@@Z
	??$_Unfancy@U_Container_proxy@std@@@std@@YAPEAU_Container_proxy@0@PEAU10@@Z
	??$_Unfancy@V?$basic_string@DU?$char_traits@D@std@@V?$allocator@D@2@@std@@@std@@YAPEAV?$basic_string@DU?$char_traits@D@std@@V?$allocator@D@2@@0@PEAV10@@Z
	??$_Unfancy@_W@std@@YAPEA_WPEA_W@Z
	??$_Unfancy_maybe_null@D@std@@YAPEADPEAD@Z
	??$_Unfancy_maybe_null@E@std@@YAPEAEPEAE@Z
	??$_Unfancy_maybe_null@H@std@@YAPEAHPEAH@Z
	??$_Unfancy_maybe_null@PEAVPGEX@olc@@@std@@YAPEAPEAVPGEX@olc@@PEAPEAV12@@Z
	??$_Unfancy_maybe_null@UDecalInstance@olc@@@std@@YAPEAUDecalInstance@olc@@PEAU12@@Z
	??$_Unfancy_maybe_null@UGPUTask@olc@@@std@@YAPEAUGPUTask@olc@@PEAU12@@Z
	??$_Unfancy_maybe_null@ULayerDesc@olc@@@std@@YAPEAULayerDesc@olc@@PEAU12@@Z
	??$_Unfancy_maybe_null@UPixel@olc@@@std@@YAPEAUPixel@olc@@PEAU12@@Z
	??$_Ungetc@D@std@@YA_NAEBDPEAU_iobuf@@@Z
	??$_Uninitialized_copy@PEADPEADV?$allocator@D@std@@@std@@YAPEADPEAD00AEAV?$allocator@D@0@@Z
	??$_Uninitialized_copy@PEAMPEAMV?$allocator@M@std@@@std@@YAPEAMPEAM00AEAV?$allocator@M@0@@Z
	??$_Uninitialized_copy@PEAU?$v_2d@M@olc@@PEAU12@V?$allocator@U?$v_2d@M@olc@@@std@@@std@@YAPEAU?$v_2d@M@olc@@PEAU12@00AEAV?$allocator@U?$v_2d@M@olc@@@0@@Z
	??$_Uninitialized_copy@PEAUPixel@olc@@PEAU12@V?$allocator@UPixel@olc@@@std@@@std@@YAPEAUPixel@olc@@PEAU12@00AEAV?$allocator@UPixel@olc@@@0@@Z
	??$_Uninitialized_copy@PEAUVertex@GPUTask@olc@@PEAU123@V?$allocator@UVertex@GPUTask@olc@@@std@@@std@@YAPEAUVertex@GPUTask@olc@@PEAU123@00AEAV?$allocator@UVertex@GPUTask@olc@@@0@@Z
	??$_Uninitialized_copy@PEBQEAXPEBQEAXV?$allocator@PEAX@std@@@std@@YAPEAPEAXPEBQEAX0PEAPEAXAEAV?$allocator@PEAX@0@@Z
	??$_Uninitialized_copy@PEBU?$v_2d@M@olc@@PEBU12@V?$allocator@U?$v_2d@M@olc@@@std@@@std@@YAPEAU?$v_2d@M@olc@@PEBU12@0PEAU12@AEAV?$allocator@U?$v_2d@M@olc@@@0@@Z
	??$_Uninitialized_copy@PEBUPixel@olc@@PEBU12@V?$allocator@UPixel@olc@@@std@@@std@@YAPEAUPixel@olc@@PEBU12@0PEAU12@AEAV?$allocator@UPixel@olc@@@0@@Z
	??$_Uninitialized_copy_n@PEAV?$basic_string@DU?$char_traits@D@std@@V?$allocator@D@2@@std@@V?$allocator@V?$basic_string@DU?$char_traits@D@std@@V?$allocator@D@2@@std@@@2@@std@@YAPEAV?$basic_string@DU?$char_traits@D@std@@V?$allocator@D@2@@0@PEAV10@_K0AEAV?$allocator@V?$basic_string@DU?$char_traits@D@std@@V?$allocator@D@2@@std@@@0@@Z
	??$_Uninitialized_copy_n@PEBMV?$allocator@M@std@@@std@@YAPEAMPEBM_KPEAMAEAV?$allocator@M@0@@Z
	??$_Uninitialized_copy_n@PEBU?$v_2d@M@olc@@V?$allocator@U?$v_2d@M@olc@@@std@@@std@@YAPEAU?$v_2d@M@olc@@PEBU12@_KPEAU12@AEAV?$allocator@U?$v_2d@M@olc@@@0@@Z
	??$_Uninitialized_copy_n@PEBUPixel@olc@@V?$allocator@UPixel@olc@@@std@@@std@@YAPEAUPixel@olc@@PEBU12@_KPEAU12@AEAV?$allocator@UPixel@olc@@@0@@Z
	??$_Uninitialized_copy_n@PEBUVertex@GPUTask@olc@@V?$allocator@UVertex@GPUTask@olc@@@std@@@std@@YAPEAUVertex@GPUTask@olc@@PEBU123@_KPEAU123@AEAV?$allocator@UVertex@GPUTask@olc@@@0@@Z
	??$_Uninitialized_fill_n@V?$allocator@UPixel@olc@@@std@@@std@@YAPEAUPixel@olc@@PEAU12@_KAEBU12@AEAV?$allocator@UPixel@olc@@@0@@Z
	??$_Uninitialized_move@PEADV?$allocator@D@std@@@std@@YAPEADQEAD0PEADAEAV?$allocator@D@0@@Z
	??$_Uninitialized_move@PEAHV?$allocator@H@std@@@std@@YAPEAHQEAH0PEAHAEAV?$allocator@H@0@@Z
	??$_Uninitialized_move@PEAMV?$allocator@M@std@@@std@@YAPEAMQEAM0PEAMAEAV?$allocator@M@0@@Z
	??$_Uninitialized_move@PEAPEAVPGEX@olc@@V?$allocator@PEAVPGEX@olc@@@std@@@std@@YAPEAPEAVPGEX@olc@@QEAPEAV12@0PEAPEAV12@AEAV?$allocator@PEAVPGEX@olc@@@0@@Z
	??$_Uninitialized_move@PEAU?$v_2d@H@olc@@V?$allocator@U?$v_2d@H@olc@@@std@@@std@@YAPEAU?$v_2d@H@olc@@QEAU12@0PEAU12@AEAV?$allocator@U?$v_2d@H@olc@@@0@@Z
	??$_Uninitialized_move@PEAU?$v_2d@M@olc@@V?$allocator@U?$v_2d@M@olc@@@std@@@std@@YAPEAU?$v_2d@M@olc@@QEAU12@0PEAU12@AEAV?$allocator@U?$v_2d@M@olc@@@0@@Z
	??$_Uninitialized_move@PEAUDecalInstance@olc@@V?$allocator@UDecalInstance@olc@@@std@@@std@@YAPEAUDecalInstance@olc@@QEAU12@0PEAU12@AEAV?$allocator@UDecalInstance@olc@@@0@@Z
	??$_Uninitialized_move@PEAUGPUTask@olc@@V?$allocator@UGPUTask@olc@@@std@@@std@@YAPEAUGPUTask@olc@@QEAU12@0PEAU12@AEAV?$allocator@UGPUTask@olc@@@0@@Z
	??$_Uninitialized_move@PEAULayerDesc@olc@@V?$allocator@ULayerDesc@olc@@@std@@@std@@YAPEAULayerDesc@olc@@QEAU12@0PEAU12@AEAV?$allocator@ULayerDesc@olc@@@0@@Z
	??$_Uninitialized_move@PEAUPixel@olc@@V?$allocator@UPixel@olc@@@std@@@std@@YAPEAUPixel@olc@@QEAU12@0PEAU12@AEAV?$allocator@UPixel@olc@@@0@@Z
	??$_Uninitialized_move@PEAUVertex@GPUTask@olc@@V?$allocator@UVertex@GPUTask@olc@@@std@@@std@@YAPEAUVertex@GPUTask@olc@@QEAU123@0PEAU123@AEAV?$allocator@UVertex@GPUTask@olc@@@0@@Z
	??$_Uninitialized_move@PEAV?$basic_string@DU?$char_traits@D@std@@V?$allocator@D@2@@std@@V?$allocator@V?$basic_string@DU?$char_traits@D@std@@V?$allocator@D@2@@std@@@2@@std@@YAPEAV?$basic_string@DU?$char_traits@D@std@@V?$allocator@D@2@@0@QEAV10@0PEAV10@AEAV?$allocator@V?$basic_string@DU?$char_traits@D@std@@V?$allocator@D@2@@std@@@0@@Z
	??$_Uninitialized_value_construct_n@V?$allocator@D@std@@@std@@YAPEADPEAD_KAEAV?$allocator@D@0@@Z
	??$_Uninitialized_value_construct_n@V?$allocator@E@std@@@std@@YAPEAEPEAE_KAEAV?$allocator@E@0@@Z
	??$_Uninitialized_value_construct_n@V?$allocator@M@std@@@std@@YAPEAMPEAM_KAEAV?$allocator@M@0@@Z
	??$_Uninitialized_value_construct_n@V?$allocator@U?$v_2d@M@olc@@@std@@@std@@YAPEAU?$v_2d@M@olc@@PEAU12@_KAEAV?$allocator@U?$v_2d@M@olc@@@0@@Z
	??$_Uninitialized_value_construct_n@V?$allocator@UPixel@olc@@@std@@@std@@YAPEAUPixel@olc@@PEAU12@_KAEAV?$allocator@UPixel@olc@@@0@@Z
	??$_Uninitialized_value_construct_n@V?$allocator@UVertex@GPUTask@olc@@@std@@@std@@YAPEAUVertex@GPUTask@olc@@PEAU123@_KAEAV?$allocator@UVertex@GPUTask@olc@@@0@@Z
	??$_Uninitialized_value_construct_n@V?$allocator@V?$basic_string@DU?$char_traits@D@std@@V?$allocator@D@2@@std@@@std@@@std@@YAPEAV?$basic_string@DU?$char_traits@D@std@@V?$allocator@D@2@@0@PEAV10@_KAEAV?$allocator@V?$basic_string@DU?$char_traits@D@std@@V?$allocator@D@2@@std@@@0@@Z
	??$_Zero_range@PEAD@std@@YAPEADQEAD0@Z
	??$_Zero_range@PEAE@std@@YAPEAEQEAE0@Z
	??$_Zero_range@PEAM@std@@YAPEAMQEAM0@Z
	??$addressof@$$CBV?$_List_val@U?$_List_simple_types@U?$pair@$$CBW4Key@olc@@V?$tuple@V?$basic_string@DU?$char_traits@D@std@@V?$allocator@D@2@@std@@V12@V12@V12@@std@@@std@@@std@@@std@@@std@@YAPEBV?$_List_val@U?$_List_simple_types@U?$pair@$$CBW4Key@olc@@V?$tuple@V?$basic_string@DU?$char_traits@D@std@@V?$allocator@D@2@@std@@V12@V12@V12@@std@@@std@@@std@@@0@AEBV10@@Z
	??$addressof@$$CBV?$_Tree_val@U?$_Tree_simple_types@U?$pair@$$CBV?$basic_string@DU?$char_traits@D@std@@V?$allocator@D@2@@std@@UsResourceFile@ResourcePack@olc@@@std@@@std@@@std@@@std@@YAPEBV?$_Tree_val@U?$_Tree_simple_types@U?$pair@$$CBV?$basic_string@DU?$char_traits@D@std@@V?$allocator@D@2@@std@@UsResourceFile@ResourcePack@olc@@@std@@@std@@@0@AEBV10@@Z
	??$addressof@$$CBV?$_Tree_val@U?$_Tree_simple_types@U?$pair@$$CB_KW4Key@olc@@@std@@@std@@@std@@@std@@YAPEBV?$_Tree_val@U?$_Tree_simple_types@U?$pair@$$CB_KW4Key@olc@@@std@@@std@@@0@AEBV10@@Z
	??$addressof@$$CBV?$_Vector_val@U?$_Simple_types@UPixel@olc@@@std@@@std@@@std@@YAPEBV?$_Vector_val@U?$_Simple_types@UPixel@olc@@@std@@@0@AEBV10@@Z
	??$addressof@$$CBV?$basic_string@DU?$char_traits@D@std@@V?$allocator@D@2@@std@@@std@@YAPEBV?$basic_string@DU?$char_traits@D@std@@V?$allocator@D@2@@0@AEBV10@@Z
	??$addressof@$$CBV?$basic_stringbuf@DU?$char_traits@D@std@@V?$allocator@D@2@@std@@@std@@YAPEBV?$basic_stringbuf@DU?$char_traits@D@std@@V?$allocator@D@2@@0@AEBV10@@Z
	??$addressof@$$CBV?$codecvt@DDU_Mbstatet@@@std@@@std@@YAPEBV?$codecvt@DDU_Mbstatet@@@0@AEBV10@@Z
	??$addressof@$$CBV?$vector@V?$basic_string@DU?$char_traits@D@std@@V?$allocator@D@2@@std@@V?$allocator@V?$basic_string@DU?$char_traits@D@std@@V?$allocator@D@2@@std@@@2@@std@@@std@@YAPEBV?$vector@V?$basic_string@DU?$char_traits@D@std@@V?$allocator@D@2@@std@@V?$allocator@V?$basic_string@DU?$char_traits@D@std@@V?$allocator@D@2@@std@@@2@@0@AEBV10@@Z
	??$addressof@D@std@@YAPEADAEAD@Z
	??$addressof@H@std@@YAPEAHAEAH@Z
	??$addressof@PEAD@std@@YAPEAPEADAEAPEAD@Z
	??$addressof@PEAU?$_List_node@U?$pair@$$CBW4Key@olc@@V?$tuple@V?$basic_string@DU?$char_traits@D@std@@V?$allocator@D@2@@std@@V12@V12@V12@@std@@@std@@PEAX@std@@@std@@YAPEAPEAU?$_List_node@U?$pair@$$CBW4Key@olc@@V?$tuple@V?$basic_string@DU?$char_traits@D@std@@V?$allocator@D@2@@std@@V12@V12@V12@@std@@@std@@PEAX@0@AEAPEAU10@@Z
	??$addressof@PEAU?$_List_node@V?$basic_string@DU?$char_traits@D@std@@V?$allocator@D@2@@std@@PEAX@std@@@std@@YAPEAPEAU?$_List_node@V?$basic_string@DU?$char_traits@D@std@@V?$allocator@D@2@@std@@PEAX@0@AEAPEAU10@@Z
	??$addressof@PEAU?$_Tree_node@U?$pair@$$CBV?$basic_string@DU?$char_traits@D@std@@V?$allocator@D@2@@std@@UsResourceFile@ResourcePack@olc@@@std@@PEAX@std@@@std@@YAPEAPEAU?$_Tree_node@U?$pair@$$CBV?$basic_string@DU?$char_traits@D@std@@V?$allocator@D@2@@std@@UsResourceFile@ResourcePack@olc@@@std@@PEAX@0@AEAPEAU10@@Z
	??$addressof@PEAU?$_Tree_node@U?$pair@$$CB_KW4Key@olc@@@std@@PEAX@std@@@std@@YAPEAPEAU?$_Tree_node@U?$pair@$$CB_KW4Key@olc@@@std@@PEAX@0@AEAPEAU10@@Z
	??$addressof@PEAVPGEX@olc@@@std@@YAPEAPEAVPGEX@olc@@AEAPEAV12@@Z
	??$addressof@PEA_W@std@@YAPEAPEA_WAEAPEA_W@Z
	??$addressof@U?$pair@$$CBV?$basic_string@DU?$char_traits@D@std@@V?$allocator@D@2@@std@@UsResourceFile@ResourcePack@olc@@@std@@@std@@YAPEAU?$pair@$$CBV?$basic_string@DU?$char_traits@D@std@@V?$allocator@D@2@@std@@UsResourceFile@ResourcePack@olc@@@0@AEAU10@@Z
	??$addressof@U?$pair@$$CBW4Key@olc@@V?$tuple@V?$basic_string@DU?$char_traits@D@std@@V?$allocator@D@2@@std@@V12@V12@V12@@std@@@std@@@std@@YAPEAU?$pair@$$CBW4Key@olc@@V?$tuple@V?$basic_string@DU?$char_traits@D@std@@V?$allocator@D@2@@std@@V12@V12@V12@@std@@@0@AEAU10@@Z
	??$addressof@U?$pair@$$CB_KW4Key@olc@@@std@@@std@@YAPEAU?$pair@$$CB_KW4Key@olc@@@0@AEAU10@@Z
	??$addressof@U?$v_2d@H@olc@@@std@@YAPEAU?$v_2d@H@olc@@AEAU12@@Z
	??$addressof@ULayerDesc@olc@@@std@@YAPEAULayerDesc@olc@@AEAU12@@Z
	??$addressof@U_Container_base12@std@@@std@@YAPEAU_Container_base12@0@AEAU10@@Z
	??$addressof@U_Container_proxy@std@@@std@@YAPEAU_Container_proxy@0@AEAU10@@Z
	??$addressof@V?$_List_unchecked_iterator@V?$_List_val@U?$_List_simple_types@U?$pair@$$CBW4Key@olc@@V?$tuple@V?$basic_string@DU?$char_traits@D@std@@V?$allocator@D@2@@std@@V12@V12@V12@@std@@@std@@@std@@@std@@@std@@@std@@YAPEAV?$_List_unchecked_iterator@V?$_List_val@U?$_List_simple_types@U?$pair@$$CBW4Key@olc@@V?$tuple@V?$basic_string@DU?$char_traits@D@std@@V?$allocator@D@2@@std@@V12@V12@V12@@std@@@std@@@std@@@std@@@0@AEAV10@@Z
	??$addressof@V?$_List_val@U?$_List_simple_types@V?$basic_string@DU?$char_traits@D@std@@V?$allocator@D@2@@std@@@std@@@std@@@std@@YAPEAV?$_List_val@U?$_List_simple_types@V?$basic_string@DU?$char_traits@D@std@@V?$allocator@D@2@@std@@@std@@@0@AEAV10@@Z
	??$addressof@V?$_String_val@U?$_Simple_types@D@std@@@std@@@std@@YAPEAV?$_String_val@U?$_Simple_types@D@std@@@0@AEAV10@@Z
	??$addressof@V?$_String_val@U?$_Simple_types@_W@std@@@std@@@std@@YAPEAV?$_String_val@U?$_Simple_types@_W@std@@@0@AEAV10@@Z
	??$addressof@V?$_Tree_val@U?$_Tree_simple_types@U?$pair@$$CBV?$basic_string@DU?$char_traits@D@std@@V?$allocator@D@2@@std@@UsResourceFile@ResourcePack@olc@@@std@@@std@@@std@@@std@@YAPEAV?$_Tree_val@U?$_Tree_simple_types@U?$pair@$$CBV?$basic_string@DU?$char_traits@D@std@@V?$allocator@D@2@@std@@UsResourceFile@ResourcePack@olc@@@std@@@std@@@0@AEAV10@@Z
	??$addressof@V?$_Tree_val@U?$_Tree_simple_types@U?$pair@$$CB_KW4Key@olc@@@std@@@std@@@std@@@std@@YAPEAV?$_Tree_val@U?$_Tree_simple_types@U?$pair@$$CB_KW4Key@olc@@@std@@@std@@@0@AEAV10@@Z
	??$addressof@V?$_Vector_val@U?$_Simple_types@PEAVPGEX@olc@@@std@@@std@@@std@@YAPEAV?$_Vector_val@U?$_Simple_types@PEAVPGEX@olc@@@std@@@0@AEAV10@@Z
	??$addressof@V?$_Vector_val@U?$_Simple_types@ULayerDesc@olc@@@std@@@std@@@std@@YAPEAV?$_Vector_val@U?$_Simple_types@ULayerDesc@olc@@@std@@@0@AEAV10@@Z
	??$addressof@V?$_Vector_val@U?$_Simple_types@UPixel@olc@@@std@@@std@@@std@@YAPEAV?$_Vector_val@U?$_Simple_types@UPixel@olc@@@std@@@0@AEAV10@@Z
	??$addressof@V?$basic_filebuf@DU?$char_traits@D@std@@@std@@@std@@YAPEAV?$basic_filebuf@DU?$char_traits@D@std@@@0@AEAV10@@Z
	??$addressof@V?$basic_ostream@DU?$char_traits@D@std@@@std@@@std@@YAPEAV?$basic_ostream@DU?$char_traits@D@std@@@0@AEAV10@@Z
	??$addressof@V?$basic_string@DU?$char_traits@D@std@@V?$allocator@D@2@@std@@@std@@YAPEAV?$basic_string@DU?$char_traits@D@std@@V?$allocator@D@2@@0@AEAV10@@Z
	??$addressof@V?$basic_stringbuf@DU?$char_traits@D@std@@V?$allocator@D@2@@std@@@std@@YAPEAV?$basic_stringbuf@DU?$char_traits@D@std@@V?$allocator@D@2@@0@AEAV10@@Z
	??$addressof@V?$vector@UPixel@olc@@V?$allocator@UPixel@olc@@@std@@@std@@@std@@YAPEAV?$vector@UPixel@olc@@V?$allocator@UPixel@olc@@@std@@@0@AEAV10@@Z
	??$append@V?$basic_string_view@DU?$char_traits@D@std@@@std@@$0A@@?$basic_string@DU?$char_traits@D@std@@V?$allocator@D@2@@std@@QEAAAEAV01@AEBV?$basic_string_view@DU?$char_traits@D@std@@@1@@Z
	??$ceil@V?$duration@_JU?$ratio@$00$0DOI@@std@@@chrono@std@@_JU?$ratio@$00$0DLJKMKAA@@3@$0A@@chrono@std@@YA?AV?$duration@_JU?$ratio@$00$0DOI@@std@@@01@AEBV?$duration@_JU?$ratio@$00$0DLJKMKAA@@std@@@01@@Z
	??$construct@D$$V@?$_Default_allocator_traits@V?$allocator@D@std@@@std@@SAXAEAV?$allocator@D@1@QEAD@Z
	??$construct@DAEAD@?$_Default_allocator_traits@V?$allocator@D@std@@@std@@SAXAEAV?$allocator@D@1@QEADAEAD@Z
	??$construct@DD@?$_Default_allocator_traits@V?$allocator@D@std@@@std@@SAXAEAV?$allocator@D@1@QEAD$$QEAD@Z
	??$construct@E$$V@?$_Default_allocator_traits@V?$allocator@E@std@@@std@@SAXAEAV?$allocator@E@1@QEAE@Z
	??$construct@HAEBH@?$_Default_allocator_traits@V?$allocator@H@std@@@std@@SAXAEAV?$allocator@H@1@QEAHAEBH@Z
	??$construct@HH@?$_Default_allocator_traits@V?$allocator@H@std@@@std@@SAXAEAV?$allocator@H@1@QEAH$$QEAH@Z
	??$construct@M$$V@?$_Default_allocator_traits@V?$allocator@M@std@@@std@@SAXAEAV?$allocator@M@1@QEAM@Z
	??$construct@MAEAM@?$_Default_allocator_traits@V?$allocator@M@std@@@std@@SAXAEAV?$allocator@M@1@QEAMAEAM@Z
	??$construct@MAEBM@?$_Default_allocator_traits@V?$allocator@M@std@@@std@@SAXAEAV?$allocator@M@1@QEAMAEBM@Z
	??$construct@MM@?$_Default_allocator_traits@V?$allocator@M@std@@@std@@SAXAEAV?$allocator@M@1@QEAM$$QEAM@Z
	??$construct@PEAVPGEX@olc@@AEBQEAV12@@?$_Default_allocator_traits@V?$allocator@PEAVPGEX@olc@@@std@@@std@@SAXAEAV?$allocator@PEAVPGEX@olc@@@1@QEAPEAVPGEX@olc@@AEBQEAV34@@Z
	??$construct@PEAVPGEX@olc@@PEAV12@@?$_Default_allocator_traits@V?$allocator@PEAVPGEX@olc@@@std@@@std@@SAXAEAV?$allocator@PEAVPGEX@olc@@@1@QEAPEAVPGEX@olc@@$$QEAPEAV34@@Z
	??$construct@PEAXAEBQEAX@?$_Default_allocator_traits@V?$allocator@PEAX@std@@@std@@SAXAEAV?$allocator@PEAX@1@QEAPEAXAEBQEAX@Z
	??$construct@U?$pair@$$CBV?$basic_string@DU?$char_traits@D@std@@V?$allocator@D@2@@std@@UsResourceFile@ResourcePack@olc@@@std@@AEBUpiecewise_construct_t@2@V?$tuple@AEBV?$basic_string@DU?$char_traits@D@std@@V?$allocator@D@2@@std@@@2@V?$tuple@$$V@2@@?$_Default_allocator_traits@V?$allocator@U?$_Tree_node@U?$pair@$$CBV?$basic_string@DU?$char_traits@D@std@@V?$allocator@D@2@@std@@UsResourceFile@ResourcePack@olc@@@std@@PEAX@std@@@std@@@std@@SAXAEAV?$allocator@U?$_Tree_node@U?$pair@$$CBV?$basic_string@DU?$char_traits@D@std@@V?$allocator@D@2@@std@@UsResourceFile@ResourcePack@olc@@@std@@PEAX@std@@@1@QEAU?$pair@$$CBV?$basic_string@DU?$char_traits@D@std@@V?$allocator@D@2@@std@@UsResourceFile@ResourcePack@olc@@@1@AEBUpiecewise_construct_t@1@$$QEAV?$tuple@AEBV?$basic_string@DU?$char_traits@D@std@@V?$allocator@D@2@@std@@@1@$$QEAV?$tuple@$$V@1@@Z
	??$construct@U?$pair@$$CBW4Key@olc@@V?$tuple@V?$basic_string@DU?$char_traits@D@std@@V?$allocator@D@2@@std@@V12@V12@V12@@std@@@std@@AEBU12@@?$_Default_allocator_traits@V?$allocator@U?$_List_node@U?$pair@$$CBW4Key@olc@@V?$tuple@V?$basic_string@DU?$char_traits@D@std@@V?$allocator@D@2@@std@@V12@V12@V12@@std@@@std@@PEAX@std@@@std@@@std@@SAXAEAV?$allocator@U?$_List_node@U?$pair@$$CBW4Key@olc@@V?$tuple@V?$basic_string@DU?$char_traits@D@std@@V?$allocator@D@2@@std@@V12@V12@V12@@std@@@std@@PEAX@std@@@1@QEAU?$pair@$$CBW4Key@olc@@V?$tuple@V?$basic_string@DU?$char_traits@D@std@@V?$allocator@D@2@@std@@V12@V12@V12@@std@@@1@AEBU31@@Z
	??$construct@U?$pair@$$CB_KW4Key@olc@@@std@@AEBUpiecewise_construct_t@2@V?$tuple@$$QEA_K@2@V?$tuple@$$V@2@@?$_Default_allocator_traits@V?$allocator@U?$_Tree_node@U?$pair@$$CB_KW4Key@olc@@@std@@PEAX@std@@@std@@@std@@SAXAEAV?$allocator@U?$_Tree_node@U?$pair@$$CB_KW4Key@olc@@@std@@PEAX@std@@@1@QEAU?$pair@$$CB_KW4Key@olc@@@1@AEBUpiecewise_construct_t@1@$$QEAV?$tuple@$$QEA_K@1@$$QEAV?$tuple@$$V@1@@Z
	??$construct@U?$v_2d@H@olc@@U12@@?$_Default_allocator_traits@V?$allocator@U?$v_2d@H@olc@@@std@@@std@@SAXAEAV?$allocator@U?$v_2d@H@olc@@@1@QEAU?$v_2d@H@olc@@$$QEAU34@@Z
	??$construct@U?$v_2d@M@olc@@$$V@?$_Default_allocator_traits@V?$allocator@U?$v_2d@M@olc@@@std@@@std@@SAXAEAV?$allocator@U?$v_2d@M@olc@@@1@QEAU?$v_2d@M@olc@@@Z
	??$construct@U?$v_2d@M@olc@@AEAU12@@?$_Default_allocator_traits@V?$allocator@U?$v_2d@M@olc@@@std@@@std@@SAXAEAV?$allocator@U?$v_2d@M@olc@@@1@QEAU?$v_2d@M@olc@@AEAU34@@Z
	??$construct@U?$v_2d@M@olc@@AEBU12@@?$_Default_allocator_traits@V?$allocator@U?$v_2d@M@olc@@@std@@@std@@SAXAEAV?$allocator@U?$v_2d@M@olc@@@1@QEAU?$v_2d@M@olc@@AEBU34@@Z
	??$construct@U?$v_2d@M@olc@@U12@@?$_Default_allocator_traits@V?$allocator@U?$v_2d@M@olc@@@std@@@std@@SAXAEAV?$allocator@U?$v_2d@M@olc@@@1@QEAU?$v_2d@M@olc@@$$QEAU34@@Z
	??$construct@UDecalInstance@olc@@AEBU12@@?$_Default_allocator_traits@V?$allocator@UDecalInstance@olc@@@std@@@std@@SAXAEAV?$allocator@UDecalInstance@olc@@@1@QEAUDecalInstance@olc@@AEBU34@@Z
	??$construct@UDecalInstance@olc@@U12@@?$_Default_allocator_traits@V?$allocator@UDecalInstance@olc@@@std@@@std@@SAXAEAV?$allocator@UDecalInstance@olc@@@1@QEAUDecalInstance@olc@@$$QEAU34@@Z
	??$construct@UGPUTask@olc@@AEBU12@@?$_Default_allocator_traits@V?$allocator@UGPUTask@olc@@@std@@@std@@SAXAEAV?$allocator@UGPUTask@olc@@@1@QEAUGPUTask@olc@@AEBU34@@Z
	??$construct@UGPUTask@olc@@U12@@?$_Default_allocator_traits@V?$allocator@UGPUTask@olc@@@std@@@std@@SAXAEAV?$allocator@UGPUTask@olc@@@1@QEAUGPUTask@olc@@$$QEAU34@@Z
	??$construct@ULayerDesc@olc@@U12@@?$_Default_allocator_traits@V?$allocator@ULayerDesc@olc@@@std@@@std@@SAXAEAV?$allocator@ULayerDesc@olc@@@1@QEAULayerDesc@olc@@$$QEAU34@@Z
	??$construct@UPixel@olc@@$$V@?$_Default_allocator_traits@V?$allocator@UPixel@olc@@@std@@@std@@SAXAEAV?$allocator@UPixel@olc@@@1@QEAUPixel@olc@@@Z
	??$construct@UPixel@olc@@AEAU12@@?$_Default_allocator_traits@V?$allocator@UPixel@olc@@@std@@@std@@SAXAEAV?$allocator@UPixel@olc@@@1@QEAUPixel@olc@@AEAU34@@Z
	??$construct@UPixel@olc@@AEBU12@@?$_Default_allocator_traits@V?$allocator@UPixel@olc@@@std@@@std@@SAXAEAV?$allocator@UPixel@olc@@@1@QEAUPixel@olc@@AEBU34@@Z
	??$construct@UPixel@olc@@U12@@?$_Default_allocator_traits@V?$allocator@UPixel@olc@@@std@@@std@@SAXAEAV?$allocator@UPixel@olc@@@1@QEAUPixel@olc@@$$QEAU34@@Z
	??$construct@UVertex@GPUTask@olc@@$$V@?$_Default_allocator_traits@V?$allocator@UVertex@GPUTask@olc@@@std@@@std@@SAXAEAV?$allocator@UVertex@GPUTask@olc@@@1@QEAUVertex@GPUTask@olc@@@Z
	??$construct@UVertex@GPUTask@olc@@AEAU123@@?$_Default_allocator_traits@V?$allocator@UVertex@GPUTask@olc@@@std@@@std@@SAXAEAV?$allocator@UVertex@GPUTask@olc@@@1@QEAUVertex@GPUTask@olc@@AEAU345@@Z
	??$construct@UVertex@GPUTask@olc@@AEBU123@@?$_Default_allocator_traits@V?$allocator@UVertex@GPUTask@olc@@@std@@@std@@SAXAEAV?$allocator@UVertex@GPUTask@olc@@@1@QEAUVertex@GPUTask@olc@@AEBU345@@Z
	??$construct@UVertex@GPUTask@olc@@U123@@?$_Default_allocator_traits@V?$allocator@UVertex@GPUTask@olc@@@std@@@std@@SAXAEAV?$allocator@UVertex@GPUTask@olc@@@1@QEAUVertex@GPUTask@olc@@$$QEAU345@@Z
	??$construct@V?$basic_string@DU?$char_traits@D@std@@V?$allocator@D@2@@std@@$$V@?$_Default_allocator_traits@V?$allocator@V?$basic_string@DU?$char_traits@D@std@@V?$allocator@D@2@@std@@@std@@@std@@SAXAEAV?$allocator@V?$basic_string@DU?$char_traits@D@std@@V?$allocator@D@2@@std@@@1@QEAV?$basic_string@DU?$char_traits@D@std@@V?$allocator@D@2@@1@@Z
	??$construct@V?$basic_string@DU?$char_traits@D@std@@V?$allocator@D@2@@std@@AEAV12@@?$_Default_allocator_traits@V?$allocator@V?$basic_string@DU?$char_traits@D@std@@V?$allocator@D@2@@std@@@std@@@std@@SAXAEAV?$allocator@V?$basic_string@DU?$char_traits@D@std@@V?$allocator@D@2@@std@@@1@QEAV?$basic_string@DU?$char_traits@D@std@@V?$allocator@D@2@@1@AEAV31@@Z
	??$construct@V?$basic_string@DU?$char_traits@D@std@@V?$allocator@D@2@@std@@AEBV12@@?$_Default_allocator_traits@V?$allocator@U?$_List_node@V?$basic_string@DU?$char_traits@D@std@@V?$allocator@D@2@@std@@PEAX@std@@@std@@@std@@SAXAEAV?$allocator@U?$_List_node@V?$basic_string@DU?$char_traits@D@std@@V?$allocator@D@2@@std@@PEAX@std@@@1@QEAV?$basic_string@DU?$char_traits@D@std@@V?$allocator@D@2@@1@AEBV31@@Z
	??$construct@V?$basic_string@DU?$char_traits@D@std@@V?$allocator@D@2@@std@@V12@@?$_Default_allocator_traits@V?$allocator@V?$basic_string@DU?$char_traits@D@std@@V?$allocator@D@2@@std@@@std@@@std@@SAXAEAV?$allocator@V?$basic_string@DU?$char_traits@D@std@@V?$allocator@D@2@@std@@@1@QEAV?$basic_string@DU?$char_traits@D@std@@V?$allocator@D@2@@1@$$QEAV31@@Z
	??$destroy@U?$pair@$$CBV?$basic_string@DU?$char_traits@D@std@@V?$allocator@D@2@@std@@UsResourceFile@ResourcePack@olc@@@std@@@?$_Default_allocator_traits@V?$allocator@U?$_Tree_node@U?$pair@$$CBV?$basic_string@DU?$char_traits@D@std@@V?$allocator@D@2@@std@@UsResourceFile@ResourcePack@olc@@@std@@PEAX@std@@@std@@@std@@SAXAEAV?$allocator@U?$_Tree_node@U?$pair@$$CBV?$basic_string@DU?$char_traits@D@std@@V?$allocator@D@2@@std@@UsResourceFile@ResourcePack@olc@@@std@@PEAX@std@@@1@QEAU?$pair@$$CBV?$basic_string@DU?$char_traits@D@std@@V?$allocator@D@2@@std@@UsResourceFile@ResourcePack@olc@@@1@@Z
	??$destroy@U?$pair@$$CBW4Key@olc@@V?$tuple@V?$basic_string@DU?$char_traits@D@std@@V?$allocator@D@2@@std@@V12@V12@V12@@std@@@std@@@?$_Default_allocator_traits@V?$allocator@U?$_List_node@U?$pair@$$CBW4Key@olc@@V?$tuple@V?$basic_string@DU?$char_traits@D@std@@V?$allocator@D@2@@std@@V12@V12@V12@@std@@@std@@PEAX@std@@@std@@@std@@SAXAEAV?$allocator@U?$_List_node@U?$pair@$$CBW4Key@olc@@V?$tuple@V?$basic_string@DU?$char_traits@D@std@@V?$allocator@D@2@@std@@V12@V12@V12@@std@@@std@@PEAX@std@@@1@QEAU?$pair@$$CBW4Key@olc@@V?$tuple@V?$basic_string@DU?$char_traits@D@std@@V?$allocator@D@2@@std@@V12@V12@V12@@std@@@1@@Z
	??$destroy@U?$pair@$$CB_KW4Key@olc@@@std@@@?$_Default_allocator_traits@V?$allocator@U?$_Tree_node@U?$pair@$$CB_KW4Key@olc@@@std@@PEAX@std@@@std@@@std@@SAXAEAV?$allocator@U?$_Tree_node@U?$pair@$$CB_KW4Key@olc@@@std@@PEAX@std@@@1@QEAU?$pair@$$CB_KW4Key@olc@@@1@@Z
	??$destroy@UDecalInstance@olc@@@?$_Default_allocator_traits@V?$allocator@UDecalInstance@olc@@@std@@@std@@SAXAEAV?$allocator@UDecalInstance@olc@@@1@QEAUDecalInstance@olc@@@Z
	??$destroy@UGPUTask@olc@@@?$_Default_allocator_traits@V?$allocator@UGPUTask@olc@@@std@@@std@@SAXAEAV?$allocator@UGPUTask@olc@@@1@QEAUGPUTask@olc@@@Z
	??$destroy@ULayerDesc@olc@@@?$_Default_allocator_traits@V?$allocator@ULayerDesc@olc@@@std@@@std@@SAXAEAV?$allocator@ULayerDesc@olc@@@1@QEAULayerDesc@olc@@@Z
	??$destroy@V?$basic_string@DU?$char_traits@D@std@@V?$allocator@D@2@@std@@@?$_Default_allocator_traits@V?$allocator@U?$_List_node@V?$basic_string@DU?$char_traits@D@std@@V?$allocator@D@2@@std@@PEAX@std@@@std@@@std@@SAXAEAV?$allocator@U?$_List_node@V?$basic_string@DU?$char_traits@D@std@@V?$allocator@D@2@@std@@PEAX@std@@@1@QEAV?$basic_string@DU?$char_traits@D@std@@V?$allocator@D@2@@1@@Z
	??$destroy@V?$basic_string@DU?$char_traits@D@std@@V?$allocator@D@2@@std@@@?$_Default_allocator_traits@V?$allocator@V?$basic_string@DU?$char_traits@D@std@@V?$allocator@D@2@@std@@@std@@@std@@SAXAEAV?$allocator@V?$basic_string@DU?$char_traits@D@std@@V?$allocator@D@2@@std@@@1@QEAV?$basic_string@DU?$char_traits@D@std@@V?$allocator@D@2@@1@@Z
	??$distance@PEBU?$v_2d@M@olc@@@std@@YA_JPEBU?$v_2d@M@olc@@0@Z
	??$duration_cast@V?$duration@MU?$ratio@$00$00@std@@@chrono@std@@_JU?$ratio@$00$0JIJGIA@@3@$0A@@chrono@std@@YA?AV?$duration@MU?$ratio@$00$00@std@@@01@AEBV?$duration@_JU?$ratio@$00$0JIJGIA@@std@@@01@@Z
	??$duration_cast@V?$duration@_JU?$ratio@$00$0DLJKMKAA@@std@@@chrono@std@@_JU?$ratio@$00$0DOI@@3@$0A@@chrono@std@@YA?AV?$duration@_JU?$ratio@$00$0DLJKMKAA@@std@@@01@AEBV?$duration@_JU?$ratio@$00$0DOI@@std@@@01@@Z
	??$duration_cast@V?$duration@_JU?$ratio@$00$0DOI@@std@@@chrono@std@@_JU?$ratio@$00$0DLJKMKAA@@3@$0A@@chrono@std@@YA?AV?$duration@_JU?$ratio@$00$0DOI@@std@@@01@AEBV?$duration@_JU?$ratio@$00$0DLJKMKAA@@std@@@01@@Z
	??$emplace@AEBU?$pair@$$CBW4Key@olc@@V?$tuple@V?$basic_string@DU?$char_traits@D@std@@V?$allocator@D@2@@std@@V12@V12@V12@@std@@@std@@@?$_Hash@V?$_Umap_traits@W4Key@olc@@V?$tuple@V?$basic_string@DU?$char_traits@D@std@@V?$allocator@D@2@@std@@V12@V12@V12@@std@@V?$_Uhash_compare@W4Key@olc@@U?$hash@W4Key@olc@@@std@@U?$equal_to@W4Key@olc@@@4@@4@V?$allocator@U?$pair@$$CBW4Key@olc@@V?$tuple@V?$basic_string@DU?$char_traits@D@std@@V?$allocator@D@2@@std@@V12@V12@V12@@std@@@std@@@4@$0A@@std@@@std@@QEAA?AU?$pair@V?$_List_iterator@V?$_List_val@U?$_List_simple_types@U?$pair@$$CBW4Key@olc@@V?$tuple@V?$basic_string@DU?$char_traits@D@std@@V?$allocator@D@2@@std@@V12@V12@V12@@std@@@std@@@std@@@std@@@std@@_N@1@AEBU?$pair@$$CBW4Key@olc@@V?$tuple@V?$basic_string@DU?$char_traits@D@std@@V?$allocator@D@2@@std@@V12@V12@V12@@std@@@1@@Z
	??$end@D$0BF@@std@@YAPEADAEAY0BF@D@Z
	??$endl@DU?$char_traits@D@std@@@std@@YAAEAV?$basic_ostream@DU?$char_traits@D@std@@@0@AEAV10@@Z
	??$exchange@PEAD$$T@std@@YAPEADAEAPEAD$$QEA$$T@Z
	??$exchange@PEAM$$T@std@@YAPEAMAEAPEAM$$QEA$$T@Z
	??$exchange@PEAU?$_List_node@U?$pair@$$CBW4Key@olc@@V?$tuple@V?$basic_string@DU?$char_traits@D@std@@V?$allocator@D@2@@std@@V12@V12@V12@@std@@@std@@PEAX@std@@$$T@std@@YAPEAU?$_List_node@U?$pair@$$CBW4Key@olc@@V?$tuple@V?$basic_string@DU?$char_traits@D@std@@V?$allocator@D@2@@std@@V12@V12@V12@@std@@@std@@PEAX@0@AEAPEAU10@$$QEA$$T@Z
	??$exchange@PEAU?$_Tree_node@U?$pair@$$CBV?$basic_string@DU?$char_traits@D@std@@V?$allocator@D@2@@std@@UsResourceFile@ResourcePack@olc@@@std@@PEAX@std@@$$T@std@@YAPEAU?$_Tree_node@U?$pair@$$CBV?$basic_string@DU?$char_traits@D@std@@V?$allocator@D@2@@std@@UsResourceFile@ResourcePack@olc@@@std@@PEAX@0@AEAPEAU10@$$QEA$$T@Z
	??$exchange@PEAU?$_Tree_node@U?$pair@$$CBV?$basic_string@DU?$char_traits@D@std@@V?$allocator@D@2@@std@@UsResourceFile@ResourcePack@olc@@@std@@PEAX@std@@AEAPEAU12@@std@@YAPEAU?$_Tree_node@U?$pair@$$CBV?$basic_string@DU?$char_traits@D@std@@V?$allocator@D@2@@std@@UsResourceFile@ResourcePack@olc@@@std@@PEAX@0@AEAPEAU10@0@Z
	??$exchange@PEAU?$_Tree_node@U?$pair@$$CB_KW4Key@olc@@@std@@PEAX@std@@$$T@std@@YAPEAU?$_Tree_node@U?$pair@$$CB_KW4Key@olc@@@std@@PEAX@0@AEAPEAU10@$$QEA$$T@Z
	??$exchange@PEAU?$_Tree_node@U?$pair@$$CB_KW4Key@olc@@@std@@PEAX@std@@AEAPEAU12@@std@@YAPEAU?$_Tree_node@U?$pair@$$CB_KW4Key@olc@@@std@@PEAX@0@AEAPEAU10@0@Z
	??$exchange@PEAU?$v_2d@M@olc@@$$T@std@@YAPEAU?$v_2d@M@olc@@AEAPEAU12@$$QEA$$T@Z
	??$exchange@PEAUDecalInstance@olc@@$$T@std@@YAPEAUDecalInstance@olc@@AEAPEAU12@$$QEA$$T@Z
	??$exchange@PEAUGPUTask@olc@@$$T@std@@YAPEAUGPUTask@olc@@AEAPEAU12@$$QEA$$T@Z
	??$exchange@PEAUPixel@olc@@$$T@std@@YAPEAUPixel@olc@@AEAPEAU12@$$QEA$$T@Z
	??$exchange@PEAUVertex@GPUTask@olc@@$$T@std@@YAPEAUVertex@GPUTask@olc@@AEAPEAU123@$$QEA$$T@Z
	??$exchange@PEAU_Container_proxy@std@@$$T@std@@YAPEAU_Container_proxy@0@AEAPEAU10@$$QEA$$T@Z
	??$exchange@PEAU_Iterator_base12@std@@$$T@std@@YAPEAU_Iterator_base12@0@AEAPEAU10@$$QEA$$T@Z
	??$exchange@PEAV?$tuple@P8PixelGameEngine@olc@@EAAXXZPEAV12@@std@@$$T@std@@YAPEAV?$tuple@P8PixelGameEngine@olc@@EAAXXZPEAV12@@0@AEAPEAV10@$$QEA$$T@Z
	??$exchange@PEAVDecal@olc@@$$T@std@@YAPEAVDecal@olc@@AEAPEAV12@$$QEA$$T@Z
	??$exchange@PEAVDecal@olc@@AEAPEAV12@@std@@YAPEAVDecal@olc@@AEAPEAV12@0@Z
	??$exchange@PEAVImageLoader@olc@@AEAPEAV12@@std@@YAPEAVImageLoader@olc@@AEAPEAV12@0@Z
	??$exchange@PEAVImageLoader_GDIPlus@olc@@$$T@std@@YAPEAVImageLoader_GDIPlus@olc@@AEAPEAV12@$$QEA$$T@Z
	??$exchange@PEAVMipsDisplay@@$$T@std@@YAPEAVMipsDisplay@@AEAPEAV1@$$QEA$$T@Z
	??$exchange@PEAVMipsDisplay@@AEAPEAV1@@std@@YAPEAVMipsDisplay@@AEAPEAV1@0@Z
	??$exchange@PEAVPlatform@olc@@AEAPEAV12@@std@@YAPEAVPlatform@olc@@AEAPEAV12@0@Z
	??$exchange@PEAVPlatform_Windows@olc@@$$T@std@@YAPEAVPlatform_Windows@olc@@AEAPEAV12@$$QEA$$T@Z
	??$exchange@PEAVRenderer@olc@@AEAPEAV12@@std@@YAPEAVRenderer@olc@@AEAPEAV12@0@Z
	??$exchange@PEAVRenderer_OGL10@olc@@$$T@std@@YAPEAVRenderer_OGL10@olc@@AEAPEAV12@$$QEA$$T@Z
	??$exchange@PEAVSprite@olc@@$$T@std@@YAPEAVSprite@olc@@AEAPEAV12@$$QEA$$T@Z
	??$exchange@PEAVSprite@olc@@AEAPEAV12@@std@@YAPEAVSprite@olc@@AEAPEAV12@0@Z
	??$exchange@PEAV_Facet_base@std@@$$T@std@@YAPEAV_Facet_base@0@AEAPEAV10@$$QEA$$T@Z
	??$exchange@U_Thrd_t@@U1@@std@@YA?AU_Thrd_t@@AEAU1@$$QEAU1@@Z
	??$fill@PEAV?$_List_unchecked_iterator@V?$_List_val@U?$_List_simple_types@U?$pair@$$CBW4Key@olc@@V?$tuple@V?$basic_string@DU?$char_traits@D@std@@V?$allocator@D@2@@std@@V12@V12@V12@@std@@@std@@@std@@@std@@@std@@V12@@std@@YAXQEAV?$_List_unchecked_iterator@V?$_List_val@U?$_List_simple_types@U?$pair@$$CBW4Key@olc@@V?$tuple@V?$basic_string@DU?$char_traits@D@std@@V?$allocator@D@2@@std@@V12@V12@V12@@std@@@std@@@std@@@std@@@0@0AEBV10@@Z
	??$find@V?$_Vector_iterator@V?$_Vector_val@U?$_Simple_types@PEAVPGEX@olc@@@std@@@std@@@std@@PEAVPGEX@olc@@@std@@YA?AV?$_Vector_iterator@V?$_Vector_val@U?$_Simple_types@PEAVPGEX@olc@@@std@@@std@@@0@V10@V10@AEBQEAVPGEX@olc@@@Z
	??$forward@AEAD@std@@YAAEADAEAD@Z
	??$forward@AEAI@std@@YAAEAIAEAI@Z
	??$forward@AEAM@std@@YAAEAMAEAM@Z
	??$forward@AEAPEAD@std@@YAAEAPEADAEAPEAD@Z
	??$forward@AEAPEAU?$_List_node@U?$pair@$$CBW4Key@olc@@V?$tuple@V?$basic_string@DU?$char_traits@D@std@@V?$allocator@D@2@@std@@V12@V12@V12@@std@@@std@@PEAX@std@@@std@@YAAEAPEAU?$_List_node@U?$pair@$$CBW4Key@olc@@V?$tuple@V?$basic_string@DU?$char_traits@D@std@@V?$allocator@D@2@@std@@V12@V12@V12@@std@@@std@@PEAX@0@AEAPEAU10@@Z
	??$forward@AEAPEAU?$_List_node@V?$basic_string@DU?$char_traits@D@std@@V?$allocator@D@2@@std@@PEAX@std@@@std@@YAAEAPEAU?$_List_node@V?$basic_string@DU?$char_traits@D@std@@V?$allocator@D@2@@std@@PEAX@0@AEAPEAU10@@Z
	??$forward@AEAPEAU?$_Tree_node@U?$pair@$$CBV?$basic_string@DU?$char_traits@D@std@@V?$allocator@D@2@@std@@UsResourceFile@ResourcePack@olc@@@std@@PEAX@std@@@std@@YAAEAPEAU?$_Tree_node@U?$pair@$$CBV?$basic_string@DU?$char_traits@D@std@@V?$allocator@D@2@@std@@UsResourceFile@ResourcePack@olc@@@std@@PEAX@0@AEAPEAU10@@Z
	??$forward@AEAPEAU?$_Tree_node@U?$pair@$$CB_KW4Key@olc@@@std@@PEAX@std@@@std@@YAAEAPEAU?$_Tree_node@U?$pair@$$CB_KW4Key@olc@@@std@@PEAX@0@AEAPEAU10@@Z
	??$forward@AEAPEAUPixel@olc@@@std@@YAAEAPEAUPixel@olc@@AEAPEAU12@@Z
	??$forward@AEAPEAV?$tuple@P8PixelGameEngine@olc@@EAAXXZPEAV12@@std@@@std@@YAAEAPEAV?$tuple@P8PixelGameEngine@olc@@EAAXXZPEAV12@@0@AEAPEAV10@@Z
	??$forward@AEAPEAVDecal@olc@@@std@@YAAEAPEAVDecal@olc@@AEAPEAV12@@Z
	??$forward@AEAPEAVImageLoader_GDIPlus@olc@@@std@@YAAEAPEAVImageLoader_GDIPlus@olc@@AEAPEAV12@@Z
	??$forward@AEAPEAVMipsDisplay@@@std@@YAAEAPEAVMipsDisplay@@AEAPEAV1@@Z
	??$forward@AEAPEAVPlatform_Windows@olc@@@std@@YAAEAPEAVPlatform_Windows@olc@@AEAPEAV12@@Z
	??$forward@AEAPEAVRenderer_OGL10@olc@@@std@@YAAEAPEAVRenderer_OGL10@olc@@AEAPEAV12@@Z
	??$forward@AEAPEAVSprite@olc@@@std@@YAAEAPEAVSprite@olc@@AEAPEAV12@@Z
	??$forward@AEAPEAV_Facet_base@std@@@std@@YAAEAPEAV_Facet_base@0@AEAPEAV10@@Z
	??$forward@AEAPEA_W@std@@YAAEAPEA_WAEAPEA_W@Z
	??$forward@AEAU?$v_2d@M@olc@@@std@@YAAEAU?$v_2d@M@olc@@AEAU12@@Z
	??$forward@AEAUPixel@olc@@@std@@YAAEAUPixel@olc@@AEAU12@@Z
	??$forward@AEAUVertex@GPUTask@olc@@@std@@YAAEAUVertex@GPUTask@olc@@AEAU123@@Z
	??$forward@AEAV?$allocator@D@std@@@std@@YAAEAV?$allocator@D@0@AEAV10@@Z
	??$forward@AEAV?$basic_string@DU?$char_traits@D@std@@V?$allocator@D@2@@std@@@std@@YAAEAV?$basic_string@DU?$char_traits@D@std@@V?$allocator@D@2@@0@AEAV10@@Z
	??$forward@AEAY00$$CBD@std@@YAAEAY00$$CBDAEAY00$$CBD@Z
	??$forward@AEAY01$$CBD@std@@YAAEAY01$$CBDAEAY01$$CBD@Z
	??$forward@AEAY02$$CBD@std@@YAAEAY02$$CBDAEAY02$$CBD@Z
	??$forward@AEA_N@std@@YAAEA_NAEA_N@Z
	??$forward@AEBH@std@@YAAEBHAEBH@Z
	??$forward@AEBM@std@@YAAEBMAEBM@Z
	??$forward@AEBQEAD@std@@YAAEBQEADAEBQEAD@Z
	??$forward@AEBQEAM@std@@YAAEBQEAMAEBQEAM@Z
	??$forward@AEBQEAU?$_List_node@U?$pair@$$CBW4Key@olc@@V?$tuple@V?$basic_string@DU?$char_traits@D@std@@V?$allocator@D@2@@std@@V12@V12@V12@@std@@@std@@PEAX@std@@@std@@YAAEBQEAU?$_List_node@U?$pair@$$CBW4Key@olc@@V?$tuple@V?$basic_string@DU?$char_traits@D@std@@V?$allocator@D@2@@std@@V12@V12@V12@@std@@@std@@PEAX@0@AEBQEAU10@@Z
	??$forward@AEBQEAU?$_List_node@V?$basic_string@DU?$char_traits@D@std@@V?$allocator@D@2@@std@@PEAX@std@@@std@@YAAEBQEAU?$_List_node@V?$basic_string@DU?$char_traits@D@std@@V?$allocator@D@2@@std@@PEAX@0@AEBQEAU10@@Z
	??$forward@AEBQEAU?$_Tree_node@U?$pair@$$CBV?$basic_string@DU?$char_traits@D@std@@V?$allocator@D@2@@std@@UsResourceFile@ResourcePack@olc@@@std@@PEAX@std@@@std@@YAAEBQEAU?$_Tree_node@U?$pair@$$CBV?$basic_string@DU?$char_traits@D@std@@V?$allocator@D@2@@std@@UsResourceFile@ResourcePack@olc@@@std@@PEAX@0@AEBQEAU10@@Z
	??$forward@AEBQEAU?$_Tree_node@U?$pair@$$CB_KW4Key@olc@@@std@@PEAX@std@@@std@@YAAEBQEAU?$_Tree_node@U?$pair@$$CB_KW4Key@olc@@@std@@PEAX@0@AEBQEAU10@@Z
	??$forward@AEBQEAU?$v_2d@M@olc@@@std@@YAAEBQEAU?$v_2d@M@olc@@AEBQEAU12@@Z
	??$forward@AEBQEAUPixel@olc@@@std@@YAAEBQEAUPixel@olc@@AEBQEAU12@@Z
	??$forward@AEBQEAUVertex@GPUTask@olc@@@std@@YAAEBQEAUVertex@GPUTask@olc@@AEBQEAU123@@Z
	??$forward@AEBQEAVPGEX@olc@@@std@@YAAEBQEAVPGEX@olc@@AEBQEAV12@@Z
	??$forward@AEBQEAX@std@@YAAEBQEAXAEBQEAX@Z
	??$forward@AEBQEA_W@std@@YAAEBQEA_WAEBQEA_W@Z
	??$forward@AEBU?$less@V?$basic_string@DU?$char_traits@D@std@@V?$allocator@D@2@@std@@@std@@@std@@YAAEBU?$less@V?$basic_string@DU?$char_traits@D@std@@V?$allocator@D@2@@std@@@0@AEBU10@@Z
	??$forward@AEBU?$less@_K@std@@@std@@YAAEBU?$less@_K@0@AEBU10@@Z
	??$forward@AEBU?$pair@$$CBW4Key@olc@@V?$tuple@V?$basic_string@DU?$char_traits@D@std@@V?$allocator@D@2@@std@@V12@V12@V12@@std@@@std@@@std@@YAAEBU?$pair@$$CBW4Key@olc@@V?$tuple@V?$basic_string@DU?$char_traits@D@std@@V?$allocator@D@2@@std@@V12@V12@V12@@std@@@0@AEBU10@@Z
	??$forward@AEBU?$v_2d@M@olc@@@std@@YAAEBU?$v_2d@M@olc@@AEBU12@@Z
	??$forward@AEBUDecalInstance@olc@@@std@@YAAEBUDecalInstance@olc@@AEBU12@@Z
	??$forward@AEBUGPUTask@olc@@@std@@YAAEBUGPUTask@olc@@AEBU12@@Z
	??$forward@AEBUPixel@olc@@@std@@YAAEBUPixel@olc@@AEBU12@@Z
	??$forward@AEBUVertex@GPUTask@olc@@@std@@YAAEBUVertex@GPUTask@olc@@AEBU123@@Z
	??$forward@AEBUpiecewise_construct_t@std@@@std@@YAAEBUpiecewise_construct_t@0@AEBU10@@Z
	??$forward@AEBV?$_List_unchecked_iterator@V?$_List_val@U?$_List_simple_types@U?$pair@$$CBW4Key@olc@@V?$tuple@V?$basic_string@DU?$char_traits@D@std@@V?$allocator@D@2@@std@@V12@V12@V12@@std@@@std@@@std@@@std@@@std@@@std@@YAAEBV?$_List_unchecked_iterator@V?$_List_val@U?$_List_simple_types@U?$pair@$$CBW4Key@olc@@V?$tuple@V?$basic_string@DU?$char_traits@D@std@@V?$allocator@D@2@@std@@V12@V12@V12@@std@@@std@@@std@@@std@@@0@AEBV10@@Z
	??$forward@AEBV?$allocator@D@std@@@std@@YAAEBV?$allocator@D@0@AEBV10@@Z
	??$forward@AEBV?$allocator@E@std@@@std@@YAAEBV?$allocator@E@0@AEBV10@@Z
	??$forward@AEBV?$allocator@PEAX@std@@@std@@YAAEBV?$allocator@PEAX@0@AEBV10@@Z
	??$forward@AEBV?$allocator@U?$pair@$$CBW4Key@olc@@V?$tuple@V?$basic_string@DU?$char_traits@D@std@@V?$allocator@D@2@@std@@V12@V12@V12@@std@@@std@@@std@@@std@@YAAEBV?$allocator@U?$pair@$$CBW4Key@olc@@V?$tuple@V?$basic_string@DU?$char_traits@D@std@@V?$allocator@D@2@@std@@V12@V12@V12@@std@@@std@@@0@AEBV10@@Z
	??$forward@AEBV?$allocator@U?$v_2d@M@olc@@@std@@@std@@YAAEBV?$allocator@U?$v_2d@M@olc@@@0@AEBV10@@Z
	??$forward@AEBV?$allocator@UPixel@olc@@@std@@@std@@YAAEBV?$allocator@UPixel@olc@@@0@AEBV10@@Z
	??$forward@AEBV?$basic_string@DU?$char_traits@D@std@@V?$allocator@D@2@@std@@@std@@YAAEBV?$basic_string@DU?$char_traits@D@std@@V?$allocator@D@2@@0@AEBV10@@Z
	??$forward@D@std@@YA$$QEADAEAD@Z
	??$forward@H@std@@YA$$QEAHAEAH@Z
	??$forward@M@std@@YA$$QEAMAEAM@Z
	??$forward@P8PixelGameEngine@olc@@EAAXXZ@std@@YA$$QEAP8PixelGameEngine@olc@@EAAXXZAEAP812@EAAXXZ@Z
	??$forward@PEAD@std@@YA$$QEAPEADAEAPEAD@Z
	??$forward@PEAM@std@@YA$$QEAPEAMAEAPEAM@Z
	??$forward@PEAPEAVPGEX@olc@@@std@@YA$$QEAPEAPEAVPGEX@olc@@AEAPEAPEAV12@@Z
	??$forward@PEAU?$_Tree_node@U?$pair@$$CBV?$basic_string@DU?$char_traits@D@std@@V?$allocator@D@2@@std@@UsResourceFile@ResourcePack@olc@@@std@@PEAX@std@@@std@@YA$$QEAPEAU?$_Tree_node@U?$pair@$$CBV?$basic_string@DU?$char_traits@D@std@@V?$allocator@D@2@@std@@UsResourceFile@ResourcePack@olc@@@std@@PEAX@0@AEAPEAU10@@Z
	??$forward@PEAU?$_Tree_node@U?$pair@$$CB_KW4Key@olc@@@std@@PEAX@std@@@std@@YA$$QEAPEAU?$_Tree_node@U?$pair@$$CB_KW4Key@olc@@@std@@PEAX@0@AEAPEAU10@@Z
	??$forward@PEAU?$v_2d@M@olc@@@std@@YA$$QEAPEAU?$v_2d@M@olc@@AEAPEAU12@@Z
	??$forward@PEAUDecalInstance@olc@@@std@@YA$$QEAPEAUDecalInstance@olc@@AEAPEAU12@@Z
	??$forward@PEAUGPUTask@olc@@@std@@YA$$QEAPEAUGPUTask@olc@@AEAPEAU12@@Z
	??$forward@PEAUPixel@olc@@@std@@YA$$QEAPEAUPixel@olc@@AEAPEAU12@@Z
	??$forward@PEAUVertex@GPUTask@olc@@@std@@YA$$QEAPEAUVertex@GPUTask@olc@@AEAPEAU123@@Z
	??$forward@PEAU_Container_base12@std@@@std@@YA$$QEAPEAU_Container_base12@0@AEAPEAU10@@Z
	??$forward@PEAVDecal@olc@@@std@@YA$$QEAPEAVDecal@olc@@AEAPEAV12@@Z
	??$forward@PEAVPGEX@olc@@@std@@YA$$QEAPEAVPGEX@olc@@AEAPEAV12@@Z
	??$forward@PEAVPixelGameEngine@olc@@@std@@YA$$QEAPEAVPixelGameEngine@olc@@AEAPEAV12@@Z
	??$forward@PEAVSprite@olc@@@std@@YA$$QEAPEAVSprite@olc@@AEAPEAV12@@Z
	??$forward@PEBQEAX@std@@YA$$QEAPEBQEAXAEAPEBQEAX@Z
	??$forward@PEBU?$v_2d@M@olc@@@std@@YA$$QEAPEBU?$v_2d@M@olc@@AEAPEBU12@@Z
	??$forward@PEBUPixel@olc@@@std@@YA$$QEAPEBUPixel@olc@@AEAPEBU12@@Z
	??$forward@U?$default_delete@VDecal@olc@@@std@@@std@@YA$$QEAU?$default_delete@VDecal@olc@@@0@AEAU10@@Z
	??$forward@U?$default_delete@VImageLoader_GDIPlus@olc@@@std@@@std@@YA$$QEAU?$default_delete@VImageLoader_GDIPlus@olc@@@0@AEAU10@@Z
	??$forward@U?$default_delete@VMipsDisplay@@@std@@@std@@YA$$QEAU?$default_delete@VMipsDisplay@@@0@AEAU10@@Z
	??$forward@U?$default_delete@VPlatform_Windows@olc@@@std@@@std@@YA$$QEAU?$default_delete@VPlatform_Windows@olc@@@0@AEAU10@@Z
	??$forward@U?$default_delete@VRenderer_OGL10@olc@@@std@@@std@@YA$$QEAU?$default_delete@VRenderer_OGL10@olc@@@0@AEAU10@@Z
	??$forward@U?$default_delete@VSprite@olc@@@std@@@std@@YA$$QEAU?$default_delete@VSprite@olc@@@0@AEAU10@@Z
	??$forward@U?$v_2d@H@olc@@@std@@YA$$QEAU?$v_2d@H@olc@@AEAU12@@Z
	??$forward@U?$v_2d@M@olc@@@std@@YA$$QEAU?$v_2d@M@olc@@AEAU12@@Z
	??$forward@UDecalInstance@olc@@@std@@YA$$QEAUDecalInstance@olc@@AEAU12@@Z
	??$forward@UGPUTask@olc@@@std@@YA$$QEAUGPUTask@olc@@AEAU12@@Z
	??$forward@ULayerDesc@olc@@@std@@YA$$QEAULayerDesc@olc@@AEAU12@@Z
	??$forward@UPixel@olc@@@std@@YA$$QEAUPixel@olc@@AEAU12@@Z
	??$forward@UVertex@GPUTask@olc@@@std@@YA$$QEAUVertex@GPUTask@olc@@AEAU123@@Z
	??$forward@U_Zero_then_variadic_args_t@std@@@std@@YA$$QEAU_Zero_then_variadic_args_t@0@AEAU10@@Z
	??$forward@V?$_List_iterator@V?$_List_val@U?$_List_simple_types@U?$pair@$$CBW4Key@olc@@V?$tuple@V?$basic_string@DU?$char_traits@D@std@@V?$allocator@D@2@@std@@V12@V12@V12@@std@@@std@@@std@@@std@@@std@@@std@@YA$$QEAV?$_List_iterator@V?$_List_val@U?$_List_simple_types@U?$pair@$$CBW4Key@olc@@V?$tuple@V?$basic_string@DU?$char_traits@D@std@@V?$allocator@D@2@@std@@V12@V12@V12@@std@@@std@@@std@@@std@@@0@AEAV10@@Z
	??$forward@V?$allocator@D@std@@@std@@YA$$QEAV?$allocator@D@0@AEAV10@@Z
	??$forward@V?$allocator@M@std@@@std@@YA$$QEAV?$allocator@M@0@AEAV10@@Z
	??$forward@V?$allocator@U?$v_2d@M@olc@@@std@@@std@@YA$$QEAV?$allocator@U?$v_2d@M@olc@@@0@AEAV10@@Z
	??$forward@V?$allocator@UDecalInstance@olc@@@std@@@std@@YA$$QEAV?$allocator@UDecalInstance@olc@@@0@AEAV10@@Z
	??$forward@V?$allocator@UGPUTask@olc@@@std@@@std@@YA$$QEAV?$allocator@UGPUTask@olc@@@0@AEAV10@@Z
	??$forward@V?$allocator@UPixel@olc@@@std@@@std@@YA$$QEAV?$allocator@UPixel@olc@@@0@AEAV10@@Z
	??$forward@V?$allocator@UVertex@GPUTask@olc@@@std@@@std@@YA$$QEAV?$allocator@UVertex@GPUTask@olc@@@0@AEAV10@@Z
	??$forward@V?$allocator@_W@std@@@std@@YA$$QEAV?$allocator@_W@0@AEAV10@@Z
	??$forward@V?$basic_string@DU?$char_traits@D@std@@V?$allocator@D@2@@std@@@std@@YA$$QEAV?$basic_string@DU?$char_traits@D@std@@V?$allocator@D@2@@0@AEAV10@@Z
	??$forward@V?$tuple@$$QEA_K@std@@@std@@YA$$QEAV?$tuple@$$QEA_K@0@AEAV10@@Z
	??$forward@V?$tuple@$$V@std@@@std@@YA$$QEAV?$tuple@$$V@0@AEAV10@@Z
	??$forward@V?$tuple@AEBV?$basic_string@DU?$char_traits@D@std@@V?$allocator@D@2@@std@@@std@@@std@@YA$$QEAV?$tuple@AEBV?$basic_string@DU?$char_traits@D@std@@V?$allocator@D@2@@std@@@0@AEAV10@@Z
	??$forward@_K@std@@YA$$QEA_KAEA_K@Z
	??$forward@_N@std@@YA$$QEA_NAEA_N@Z
	??$forward_as_tuple@$$V@std@@YA?AV?$tuple@$$V@0@XZ
	??$forward_as_tuple@AEBV?$basic_string@DU?$char_traits@D@std@@V?$allocator@D@2@@std@@@std@@YA?AV?$tuple@AEBV?$basic_string@DU?$char_traits@D@std@@V?$allocator@D@2@@std@@@0@AEBV?$basic_string@DU?$char_traits@D@std@@V?$allocator@D@2@@0@@Z
	??$forward_as_tuple@_K@std@@YA?AV?$tuple@$$QEA_K@0@$$QEA_K@Z
	??$get@$00P8PixelGameEngine@olc@@EAAXXZPEAV12@@std@@YAAEAPEAVPixelGameEngine@olc@@AEAV?$tuple@P8PixelGameEngine@olc@@EAAXXZPEAV12@@0@@Z
	??$get@$00V?$basic_string@DU?$char_traits@D@std@@V?$allocator@D@2@@std@@V12@V12@V12@@std@@YAAEBV?$basic_string@DU?$char_traits@D@std@@V?$allocator@D@2@@0@AEBV?$tuple@V?$basic_string@DU?$char_traits@D@std@@V?$allocator@D@2@@std@@V12@V12@V12@@0@@Z
	??$get@$01V?$basic_string@DU?$char_traits@D@std@@V?$allocator@D@2@@std@@V12@V12@V12@@std@@YAAEBV?$basic_string@DU?$char_traits@D@std@@V?$allocator@D@2@@0@AEBV?$tuple@V?$basic_string@DU?$char_traits@D@std@@V?$allocator@D@2@@std@@V12@V12@V12@@0@@Z
	??$get@$02V?$basic_string@DU?$char_traits@D@std@@V?$allocator@D@2@@std@@V12@V12@V12@@std@@YAAEBV?$basic_string@DU?$char_traits@D@std@@V?$allocator@D@2@@0@AEBV?$tuple@V?$basic_string@DU?$char_traits@D@std@@V?$allocator@D@2@@std@@V12@V12@V12@@0@@Z
	??$get@$0A@P8PixelGameEngine@olc@@EAAXXZPEAV12@@std@@YAAEAP8PixelGameEngine@olc@@EAAXXZAEAV?$tuple@P8PixelGameEngine@olc@@EAAXXZPEAV12@@0@@Z
	??$get@$0A@V?$basic_string@DU?$char_traits@D@std@@V?$allocator@D@2@@std@@V12@V12@V12@@std@@YAAEBV?$basic_string@DU?$char_traits@D@std@@V?$allocator@D@2@@0@AEBV?$tuple@V?$basic_string@DU?$char_traits@D@std@@V?$allocator@D@2@@std@@V12@V12@V12@@0@@Z
	??$invoke@P8PixelGameEngine@olc@@EAAXXZPEAV12@$$V@std@@YAX$$QEAP8PixelGameEngine@olc@@EAAXXZ$$QEAPEAV12@@Z
	??$make_unique@V?$tuple@P8PixelGameEngine@olc@@EAAXXZPEAV12@@std@@P8PixelGameEngine@olc@@EAAXXZPEAV34@$0A@@std@@YA?AV?$unique_ptr@V?$tuple@P8PixelGameEngine@olc@@EAAXXZPEAV12@@std@@U?$default_delete@V?$tuple@P8PixelGameEngine@olc@@EAAXXZPEAV12@@std@@@2@@0@$$QEAP8PixelGameEngine@olc@@EAAXXZ$$QEAPEAV23@@Z
	??$make_unique@VDecal@olc@@PEAVSprite@2@AEA_NAEA_N$0A@@std@@YA?AV?$unique_ptr@VDecal@olc@@U?$default_delete@VDecal@olc@@@std@@@0@$$QEAPEAVSprite@olc@@AEA_N1@Z
	??$make_unique@VImageLoader_GDIPlus@olc@@$$V$0A@@std@@YA?AV?$unique_ptr@VImageLoader_GDIPlus@olc@@U?$default_delete@VImageLoader_GDIPlus@olc@@@std@@@0@XZ
	??$make_unique@VMipsDisplay@@$$V$0A@@std@@YA?AV?$unique_ptr@VMipsDisplay@@U?$default_delete@VMipsDisplay@@@std@@@0@XZ
	??$make_unique@VPlatform_Windows@olc@@$$V$0A@@std@@YA?AV?$unique_ptr@VPlatform_Windows@olc@@U?$default_delete@VPlatform_Windows@olc@@@std@@@0@XZ
	??$make_unique@VRenderer_OGL10@olc@@$$V$0A@@std@@YA?AV?$unique_ptr@VRenderer_OGL10@olc@@U?$default_delete@VRenderer_OGL10@olc@@@std@@@0@XZ
	??$make_unique@VSprite@olc@@$$V$0A@@std@@YA?AV?$unique_ptr@VSprite@olc@@U?$default_delete@VSprite@olc@@@std@@@0@XZ
	??$make_unique@VSprite@olc@@AEAIAEAI$0A@@std@@YA?AV?$unique_ptr@VSprite@olc@@U?$default_delete@VSprite@olc@@@std@@@0@AEAI0@Z
	??$max@H@std@@YAAEBHAEBH0@Z
	??$max@M@std@@YAAEBMAEBM0@Z
	??$max@PEAD@std@@YAAEBQEADAEBQEAD0@Z
	??$max@_K@std@@YAAEB_KAEB_K0@Z
	??$min@H@std@@YAAEBHAEBH0@Z
	??$min@M@std@@YAAEBMAEBM0@Z
	??$min@_K@std@@YAAEB_KAEB_K0@Z
	??$move@AEAD@std@@YA$$QEADAEAD@Z
	??$move@AEAH@std@@YA$$QEAHAEAH@Z
	??$move@AEAM@std@@YA$$QEAMAEAM@Z
	??$move@AEAP8PixelGameEngine@olc@@EAAXXZ@std@@YA$$QEAP8PixelGameEngine@olc@@EAAXXZAEAP812@EAAXXZ@Z
	??$move@AEAPEAD@std@@YA$$QEAPEADAEAPEAD@Z
	??$move@AEAPEAH@std@@YA$$QEAPEAHAEAPEAH@Z
	??$move@AEAPEAM@std@@YA$$QEAPEAMAEAPEAM@Z
	??$move@AEAPEAPEAVPGEX@olc@@@std@@YA$$QEAPEAPEAVPGEX@olc@@AEAPEAPEAV12@@Z
	??$move@AEAPEAPEAX@std@@YA$$QEAPEAPEAXAEAPEAPEAX@Z
	??$move@AEAPEAU?$v_2d@H@olc@@@std@@YA$$QEAPEAU?$v_2d@H@olc@@AEAPEAU12@@Z
	??$move@AEAPEAU?$v_2d@M@olc@@@std@@YA$$QEAPEAU?$v_2d@M@olc@@AEAPEAU12@@Z
	??$move@AEAPEAUPixel@olc@@@std@@YA$$QEAPEAUPixel@olc@@AEAPEAU12@@Z
	??$move@AEAPEAUVertex@GPUTask@olc@@@std@@YA$$QEAPEAUVertex@GPUTask@olc@@AEAPEAU123@@Z
	??$move@AEAPEAV?$basic_string@DU?$char_traits@D@std@@V?$allocator@D@2@@std@@@std@@YA$$QEAPEAV?$basic_string@DU?$char_traits@D@std@@V?$allocator@D@2@@0@AEAPEAV10@@Z
	??$move@AEAPEAVPGEX@olc@@@std@@YA$$QEAPEAVPGEX@olc@@AEAPEAV12@@Z
	??$move@AEAPEAVPixelGameEngine@olc@@@std@@YA$$QEAPEAVPixelGameEngine@olc@@AEAPEAV12@@Z
	??$move@AEAPEBM@std@@YA$$QEAPEBMAEAPEBM@Z
	??$move@AEAPEBQEAX@std@@YA$$QEAPEBQEAXAEAPEBQEAX@Z
	??$move@AEAPEBU?$v_2d@M@olc@@@std@@YA$$QEAPEBU?$v_2d@M@olc@@AEAPEBU12@@Z
	??$move@AEAPEBUPixel@olc@@@std@@YA$$QEAPEBUPixel@olc@@AEAPEBU12@@Z
	??$move@AEAPEBUVertex@GPUTask@olc@@@std@@YA$$QEAPEBUVertex@GPUTask@olc@@AEAPEBU123@@Z
	??$move@AEAU?$v_2d@H@olc@@@std@@YA$$QEAU?$v_2d@H@olc@@AEAU12@@Z
	??$move@AEAU?$v_2d@M@olc@@@std@@YA$$QEAU?$v_2d@M@olc@@AEAU12@@Z
	??$move@AEAUDecalInstance@olc@@@std@@YA$$QEAUDecalInstance@olc@@AEAU12@@Z
	??$move@AEAUGPUTask@olc@@@std@@YA$$QEAUGPUTask@olc@@AEAU12@@Z
	??$move@AEAULayerDesc@olc@@@std@@YA$$QEAULayerDesc@olc@@AEAU12@@Z
	??$move@AEAUPixel@olc@@@std@@YA$$QEAUPixel@olc@@AEAU12@@Z
	??$move@AEAUVertex@GPUTask@olc@@@std@@YA$$QEAUVertex@GPUTask@olc@@AEAU123@@Z
	??$move@AEAV?$_Func_class@UPixel@olc@@HHAEBU12@AEBU12@@std@@@std@@YA$$QEAV?$_Func_class@UPixel@olc@@HHAEBU12@AEBU12@@0@AEAV10@@Z
	??$move@AEAV?$_Func_class@X$$V@std@@@std@@YA$$QEAV?$_Func_class@X$$V@0@AEAV10@@Z
	??$move@AEAV?$_Vector_iterator@V?$_Vector_val@U?$_Simple_types@ULayerDesc@olc@@@std@@@std@@@std@@@std@@YA$$QEAV?$_Vector_iterator@V?$_Vector_val@U?$_Simple_types@ULayerDesc@olc@@@std@@@std@@@0@AEAV10@@Z
	??$move@AEAV?$allocator@D@std@@@std@@YA$$QEAV?$allocator@D@0@AEAV10@@Z
	??$move@AEAV?$allocator@M@std@@@std@@YA$$QEAV?$allocator@M@0@AEAV10@@Z
	??$move@AEAV?$allocator@U?$v_2d@M@olc@@@std@@@std@@YA$$QEAV?$allocator@U?$v_2d@M@olc@@@0@AEAV10@@Z
	??$move@AEAV?$allocator@UDecalInstance@olc@@@std@@@std@@YA$$QEAV?$allocator@UDecalInstance@olc@@@0@AEAV10@@Z
	??$move@AEAV?$allocator@UGPUTask@olc@@@std@@@std@@YA$$QEAV?$allocator@UGPUTask@olc@@@0@AEAV10@@Z
	??$move@AEAV?$allocator@UPixel@olc@@@std@@@std@@YA$$QEAV?$allocator@UPixel@olc@@@0@AEAV10@@Z
	??$move@AEAV?$allocator@UVertex@GPUTask@olc@@@std@@@std@@YA$$QEAV?$allocator@UVertex@GPUTask@olc@@@0@AEAV10@@Z
	??$move@AEAV?$allocator@_W@std@@@std@@YA$$QEAV?$allocator@_W@0@AEAV10@@Z
	??$move@AEAV?$basic_string@DU?$char_traits@D@std@@V?$allocator@D@2@@std@@@std@@YA$$QEAV?$basic_string@DU?$char_traits@D@std@@V?$allocator@D@2@@0@AEAV10@@Z
	??$move@AEAV?$function@$$A6AXXZ@std@@@std@@YA$$QEAV?$function@$$A6AXXZ@0@AEAV10@@Z
	??$move@AEAV?$tuple@$$QEA_K@std@@@std@@YA$$QEAV?$tuple@$$QEA_K@0@AEAV10@@Z
	??$move@AEAV?$tuple@AEBV?$basic_string@DU?$char_traits@D@std@@V?$allocator@D@2@@std@@@std@@@std@@YA$$QEAV?$tuple@AEBV?$basic_string@DU?$char_traits@D@std@@V?$allocator@D@2@@std@@@0@AEAV10@@Z
	??$move@AEAV?$vector@UPixel@olc@@V?$allocator@UPixel@olc@@@std@@@std@@@std@@YA$$QEAV?$vector@UPixel@olc@@V?$allocator@UPixel@olc@@@std@@@0@AEAV10@@Z
	??$move@AEAW4Mode@Sprite@olc@@@std@@YA$$QEAW4Mode@Sprite@olc@@AEAW4123@@Z
	??$move@AEA_K@std@@YA$$QEA_KAEA_K@Z
	??$sleep_for@_JU?$ratio@$00$0DOI@@std@@@this_thread@std@@YAXAEBV?$duration@_JU?$ratio@$00$0DOI@@std@@@chrono@1@@Z
	??$sleep_until@Usteady_clock@chrono@std@@V?$duration@_JU?$ratio@$00$0DLJKMKAA@@std@@@23@@this_thread@std@@YAXAEBV?$time_point@Usteady_clock@chrono@std@@V?$duration@_JU?$ratio@$00$0DLJKMKAA@@std@@@23@@chrono@1@@Z
	??$swap@H$0A@@std@@YAXAEAH0@Z
	??$swap@M$0A@@std@@YAXAEAM0@Z
	??$swap@PEAUPixel@olc@@$0A@@std@@YAXAEAPEAUPixel@olc@@0@Z
	??$swap@U?$v_2d@M@olc@@$0A@@std@@YAXAEAU?$v_2d@M@olc@@0@Z
	??$swap@UPixel@olc@@$0A@@std@@YAXAEAUPixel@olc@@0@Z
	??$swap@UPixel@olc@@V?$allocator@UPixel@olc@@@std@@@std@@YAXAEAV?$vector@UPixel@olc@@V?$allocator@UPixel@olc@@@std@@@0@0@Z
	??$swap@W4Mode@Sprite@olc@@$0A@@std@@YAXAEAW4Mode@Sprite@olc@@0@Z
	??$uninitialized_fill@PEAV?$_List_unchecked_iterator@V?$_List_val@U?$_List_simple_types@U?$pair@$$CBW4Key@olc@@V?$tuple@V?$basic_string@DU?$char_traits@D@std@@V?$allocator@D@2@@std@@V12@V12@V12@@std@@@std@@@std@@@std@@@std@@V12@@std@@YAXQEAV?$_List_unchecked_iterator@V?$_List_val@U?$_List_simple_types@U?$pair@$$CBW4Key@olc@@V?$tuple@V?$basic_string@DU?$char_traits@D@std@@V?$allocator@D@2@@std@@V12@V12@V12@@std@@@std@@@std@@@std@@@0@0AEBV10@@Z
	??$use_facet@V?$codecvt@DDU_Mbstatet@@@std@@@std@@YAAEBV?$codecvt@DDU_Mbstatet@@@0@AEBVlocale@0@@Z
	??0?$_Alloc_construct_ptr@V?$allocator@U?$_List_node@U?$pair@$$CBW4Key@olc@@V?$tuple@V?$basic_string@DU?$char_traits@D@std@@V?$allocator@D@2@@std@@V12@V12@V12@@std@@@std@@PEAX@std@@@std@@@std@@QEAA@AEAV?$allocator@U?$_List_node@U?$pair@$$CBW4Key@olc@@V?$tuple@V?$basic_string@DU?$char_traits@D@std@@V?$allocator@D@2@@std@@V12@V12@V12@@std@@@std@@PEAX@std@@@1@@Z
	??0?$_Alloc_construct_ptr@V?$allocator@U?$_List_node@V?$basic_string@DU?$char_traits@D@std@@V?$allocator@D@2@@std@@PEAX@std@@@std@@@std@@QEAA@AEAV?$allocator@U?$_List_node@V?$basic_string@DU?$char_traits@D@std@@V?$allocator@D@2@@std@@PEAX@std@@@1@@Z
	??0?$_Alloc_construct_ptr@V?$allocator@U?$_Tree_node@U?$pair@$$CBV?$basic_string@DU?$char_traits@D@std@@V?$allocator@D@2@@std@@UsResourceFile@ResourcePack@olc@@@std@@PEAX@std@@@std@@@std@@QEAA@AEAV?$allocator@U?$_Tree_node@U?$pair@$$CBV?$basic_string@DU?$char_traits@D@std@@V?$allocator@D@2@@std@@UsResourceFile@ResourcePack@olc@@@std@@PEAX@std@@@1@@Z
	??0?$_Alloc_construct_ptr@V?$allocator@U?$_Tree_node@U?$pair@$$CB_KW4Key@olc@@@std@@PEAX@std@@@std@@@std@@QEAA@AEAV?$allocator@U?$_Tree_node@U?$pair@$$CB_KW4Key@olc@@@std@@PEAX@std@@@1@@Z
	??0?$_Array_const_iterator@U?$v_2d@M@olc@@$03@std@@QEAA@PEBU?$v_2d@M@olc@@_K@Z
	??0?$_Atomic_storage@_N$00@std@@QEAA@AEB_N@Z
	??0?$_Container_proxy_ptr12@V?$allocator@U_Container_proxy@std@@@std@@@std@@QEAA@AEAV?$allocator@U_Container_proxy@std@@@1@AEAU_Container_base12@1@@Z
	??0?$_Func_class@UPixel@olc@@HHAEBU12@AEBU12@@std@@QEAA@XZ
	??0?$_Func_class@X$$V@std@@QEAA@XZ
	??0?$_Hash@V?$_Umap_traits@W4Key@olc@@V?$tuple@V?$basic_string@DU?$char_traits@D@std@@V?$allocator@D@2@@std@@V12@V12@V12@@std@@V?$_Uhash_compare@W4Key@olc@@U?$hash@W4Key@olc@@@std@@U?$equal_to@W4Key@olc@@@4@@4@V?$allocator@U?$pair@$$CBW4Key@olc@@V?$tuple@V?$basic_string@DU?$char_traits@D@std@@V?$allocator@D@2@@std@@V12@V12@V12@@std@@@std@@@4@$0A@@std@@@std@@IEAA@AEBV?$_Uhash_compare@W4Key@olc@@U?$hash@W4Key@olc@@@std@@U?$equal_to@W4Key@olc@@@4@@1@AEBV?$allocator@U?$pair@$$CBW4Key@olc@@V?$tuple@V?$basic_string@DU?$char_traits@D@std@@V?$allocator@D@2@@std@@V12@V12@V12@@std@@@std@@@1@@Z
	??0?$_List_const_iterator@V?$_List_val@U?$_List_simple_types@U?$pair@$$CBW4Key@olc@@V?$tuple@V?$basic_string@DU?$char_traits@D@std@@V?$allocator@D@2@@std@@V12@V12@V12@@std@@@std@@@std@@@std@@@std@@QEAA@$$QEAV01@@Z
	??0?$_List_const_iterator@V?$_List_val@U?$_List_simple_types@U?$pair@$$CBW4Key@olc@@V?$tuple@V?$basic_string@DU?$char_traits@D@std@@V?$allocator@D@2@@std@@V12@V12@V12@@std@@@std@@@std@@@std@@@std@@QEAA@PEAU?$_List_node@U?$pair@$$CBW4Key@olc@@V?$tuple@V?$basic_string@DU?$char_traits@D@std@@V?$allocator@D@2@@std@@V12@V12@V12@@std@@@std@@PEAX@1@PEBV?$_List_val@U?$_List_simple_types@U?$pair@$$CBW4Key@olc@@V?$tuple@V?$basic_string@DU?$char_traits@D@std@@V?$allocator@D@2@@std@@V12@V12@V12@@std@@@std@@@std@@@1@@Z
	??0?$_List_const_iterator@V?$_List_val@U?$_List_simple_types@V?$basic_string@DU?$char_traits@D@std@@V?$allocator@D@2@@std@@@std@@@std@@@std@@QEAA@$$QEAV01@@Z
	??0?$_List_const_iterator@V?$_List_val@U?$_List_simple_types@V?$basic_string@DU?$char_traits@D@std@@V?$allocator@D@2@@std@@@std@@@std@@@std@@QEAA@AEBV01@@Z
	??0?$_List_const_iterator@V?$_List_val@U?$_List_simple_types@V?$basic_string@DU?$char_traits@D@std@@V?$allocator@D@2@@std@@@std@@@std@@@std@@QEAA@PEAU?$_List_node@V?$basic_string@DU?$char_traits@D@std@@V?$allocator@D@2@@std@@PEAX@1@PEBV?$_List_val@U?$_List_simple_types@V?$basic_string@DU?$char_traits@D@std@@V?$allocator@D@2@@std@@@std@@@1@@Z
	??0?$_List_const_iterator@V?$_List_val@U?$_List_simple_types@V?$basic_string@DU?$char_traits@D@std@@V?$allocator@D@2@@std@@@std@@@std@@@std@@QEAA@XZ
	??0?$_List_iterator@V?$_List_val@U?$_List_simple_types@U?$pair@$$CBW4Key@olc@@V?$tuple@V?$basic_string@DU?$char_traits@D@std@@V?$allocator@D@2@@std@@V12@V12@V12@@std@@@std@@@std@@@std@@@std@@QEAA@$$QEAV01@@Z
	??0?$_List_iterator@V?$_List_val@U?$_List_simple_types@U?$pair@$$CBW4Key@olc@@V?$tuple@V?$basic_string@DU?$char_traits@D@std@@V?$allocator@D@2@@std@@V12@V12@V12@@std@@@std@@@std@@@std@@@std@@QEAA@PEAU?$_List_node@U?$pair@$$CBW4Key@olc@@V?$tuple@V?$basic_string@DU?$char_traits@D@std@@V?$allocator@D@2@@std@@V12@V12@V12@@std@@@std@@PEAX@1@PEBV?$_List_val@U?$_List_simple_types@U?$pair@$$CBW4Key@olc@@V?$tuple@V?$basic_string@DU?$char_traits@D@std@@V?$allocator@D@2@@std@@V12@V12@V12@@std@@@std@@@std@@@1@@Z
	??0?$_List_iterator@V?$_List_val@U?$_List_simple_types@V?$basic_string@DU?$char_traits@D@std@@V?$allocator@D@2@@std@@@std@@@std@@@std@@QEAA@$$QEAV01@@Z
	??0?$_List_iterator@V?$_List_val@U?$_List_simple_types@V?$basic_string@DU?$char_traits@D@std@@V?$allocator@D@2@@std@@@std@@@std@@@std@@QEAA@AEBV01@@Z
	??0?$_List_iterator@V?$_List_val@U?$_List_simple_types@V?$basic_string@DU?$char_traits@D@std@@V?$allocator@D@2@@std@@@std@@@std@@@std@@QEAA@PEAU?$_List_node@V?$basic_string@DU?$char_traits@D@std@@V?$allocator@D@2@@std@@PEAX@1@PEBV?$_List_val@U?$_List_simple_types@V?$basic_string@DU?$char_traits@D@std@@V?$allocator@D@2@@std@@@std@@@1@@Z
	??0?$_List_iterator@V?$_List_val@U?$_List_simple_types@V?$basic_string@DU?$char_traits@D@std@@V?$allocator@D@2@@std@@@std@@@std@@@std@@QEAA@XZ
	??0?$_List_unchecked_const_iterator@V?$_List_val@U?$_List_simple_types@U?$pair@$$CBW4Key@olc@@V?$tuple@V?$basic_string@DU?$char_traits@D@std@@V?$allocator@D@2@@std@@V12@V12@V12@@std@@@std@@@std@@@std@@U_Iterator_base0@2@@std@@QEAA@PEAU?$_List_node@U?$pair@$$CBW4Key@olc@@V?$tuple@V?$basic_string@DU?$char_traits@D@std@@V?$allocator@D@2@@std@@V12@V12@V12@@std@@@std@@PEAX@1@PEBV?$_List_val@U?$_List_simple_types@U?$pair@$$CBW4Key@olc@@V?$tuple@V?$basic_string@DU?$char_traits@D@std@@V?$allocator@D@2@@std@@V12@V12@V12@@std@@@std@@@std@@@1@@Z
	??0?$_List_unchecked_const_iterator@V?$_List_val@U?$_List_simple_types@U?$pair@$$CBW4Key@olc@@V?$tuple@V?$basic_string@DU?$char_traits@D@std@@V?$allocator@D@2@@std@@V12@V12@V12@@std@@@std@@@std@@@std@@U_Iterator_base12@2@@std@@QEAA@$$QEAV01@@Z
	??0?$_List_unchecked_const_iterator@V?$_List_val@U?$_List_simple_types@U?$pair@$$CBW4Key@olc@@V?$tuple@V?$basic_string@DU?$char_traits@D@std@@V?$allocator@D@2@@std@@V12@V12@V12@@std@@@std@@@std@@@std@@U_Iterator_base12@2@@std@@QEAA@PEAU?$_List_node@U?$pair@$$CBW4Key@olc@@V?$tuple@V?$basic_string@DU?$char_traits@D@std@@V?$allocator@D@2@@std@@V12@V12@V12@@std@@@std@@PEAX@1@PEBV?$_List_val@U?$_List_simple_types@U?$pair@$$CBW4Key@olc@@V?$tuple@V?$basic_string@DU?$char_traits@D@std@@V?$allocator@D@2@@std@@V12@V12@V12@@std@@@std@@@std@@@1@@Z
	??0?$_List_unchecked_const_iterator@V?$_List_val@U?$_List_simple_types@V?$basic_string@DU?$char_traits@D@std@@V?$allocator@D@2@@std@@@std@@@std@@U_Iterator_base12@2@@std@@QEAA@$$QEAV01@@Z
	??0?$_List_unchecked_const_iterator@V?$_List_val@U?$_List_simple_types@V?$basic_string@DU?$char_traits@D@std@@V?$allocator@D@2@@std@@@std@@@std@@U_Iterator_base12@2@@std@@QEAA@AEBV01@@Z
	??0?$_List_unchecked_const_iterator@V?$_List_val@U?$_List_simple_types@V?$basic_string@DU?$char_traits@D@std@@V?$allocator@D@2@@std@@@std@@@std@@U_Iterator_base12@2@@std@@QEAA@PEAU?$_List_node@V?$basic_string@DU?$char_traits@D@std@@V?$allocator@D@2@@std@@PEAX@1@PEBV?$_List_val@U?$_List_simple_types@V?$basic_string@DU?$char_traits@D@std@@V?$allocator@D@2@@std@@@std@@@1@@Z
	??0?$_List_unchecked_const_iterator@V?$_List_val@U?$_List_simple_types@V?$basic_string@DU?$char_traits@D@std@@V?$allocator@D@2@@std@@@std@@@std@@U_Iterator_base12@2@@std@@QEAA@XZ
	??0?$_List_unchecked_iterator@V?$_List_val@U?$_List_simple_types@U?$pair@$$CBW4Key@olc@@V?$tuple@V?$basic_string@DU?$char_traits@D@std@@V?$allocator@D@2@@std@@V12@V12@V12@@std@@@std@@@std@@@std@@@std@@QEAA@PEAU?$_List_node@U?$pair@$$CBW4Key@olc@@V?$tuple@V?$basic_string@DU?$char_traits@D@std@@V?$allocator@D@2@@std@@V12@V12@V12@@std@@@std@@PEAX@1@PEBV?$_List_val@U?$_List_simple_types@U?$pair@$$CBW4Key@olc@@V?$tuple@V?$basic_string@DU?$char_traits@D@std@@V?$allocator@D@2@@std@@V12@V12@V12@@std@@@std@@@std@@@1@@Z
	??0?$_List_val@U?$_List_simple_types@U?$pair@$$CBW4Key@olc@@V?$tuple@V?$basic_string@DU?$char_traits@D@std@@V?$allocator@D@2@@std@@V12@V12@V12@@std@@@std@@@std@@@std@@QEAA@XZ
	??0?$_List_val@U?$_List_simple_types@V?$basic_string@DU?$char_traits@D@std@@V?$allocator@D@2@@std@@@std@@@std@@QEAA@XZ
	??0?$_String_val@U?$_Simple_types@D@std@@@std@@QEAA@XZ
	??0?$_String_val@U?$_Simple_types@_W@std@@@std@@QEAA@XZ
	??0?$_Tree@V?$_Tmap_traits@V?$basic_string@DU?$char_traits@D@std@@V?$allocator@D@2@@std@@UsResourceFile@ResourcePack@olc@@U?$less@V?$basic_string@DU?$char_traits@D@std@@V?$allocator@D@2@@std@@@2@V?$allocator@U?$pair@$$CBV?$basic_string@DU?$char_traits@D@std@@V?$allocator@D@2@@std@@UsResourceFile@ResourcePack@olc@@@std@@@2@$0A@@std@@@std@@QEAA@AEBU?$less@V?$basic_string@DU?$char_traits@D@std@@V?$allocator@D@2@@std@@@1@@Z
	??0?$_Tree@V?$_Tmap_traits@_KW4Key@olc@@U?$less@_K@std@@V?$allocator@U?$pair@$$CB_KW4Key@olc@@@std@@@4@$0A@@std@@@std@@QEAA@AEBU?$less@_K@1@@Z
	??0?$_Tree_temp_node_alloc@V?$allocator@U?$_Tree_node@U?$pair@$$CBV?$basic_string@DU?$char_traits@D@std@@V?$allocator@D@2@@std@@UsResourceFile@ResourcePack@olc@@@std@@PEAX@std@@@std@@@std@@QEAA@AEAV?$allocator@U?$_Tree_node@U?$pair@$$CBV?$basic_string@DU?$char_traits@D@std@@V?$allocator@D@2@@std@@UsResourceFile@ResourcePack@olc@@@std@@PEAX@std@@@1@@Z
	??0?$_Tree_temp_node_alloc@V?$allocator@U?$_Tree_node@U?$pair@$$CB_KW4Key@olc@@@std@@PEAX@std@@@std@@@std@@QEAA@AEAV?$allocator@U?$_Tree_node@U?$pair@$$CB_KW4Key@olc@@@std@@PEAX@std@@@1@@Z
	??0?$_Tree_unchecked_const_iterator@V?$_Tree_val@U?$_Tree_simple_types@U?$pair@$$CBV?$basic_string@DU?$char_traits@D@std@@V?$allocator@D@2@@std@@UsResourceFile@ResourcePack@olc@@@std@@@std@@@std@@U_Iterator_base0@2@@std@@QEAA@PEAU?$_Tree_node@U?$pair@$$CBV?$basic_string@DU?$char_traits@D@std@@V?$allocator@D@2@@std@@UsResourceFile@ResourcePack@olc@@@std@@PEAX@1@PEBV?$_Tree_val@U?$_Tree_simple_types@U?$pair@$$CBV?$basic_string@DU?$char_traits@D@std@@V?$allocator@D@2@@std@@UsResourceFile@ResourcePack@olc@@@std@@@std@@@1@@Z
	??0?$_Tree_unchecked_iterator@V?$_Tree_val@U?$_Tree_simple_types@U?$pair@$$CBV?$basic_string@DU?$char_traits@D@std@@V?$allocator@D@2@@std@@UsResourceFile@ResourcePack@olc@@@std@@@std@@@std@@@std@@QEAA@PEAU?$_Tree_node@U?$pair@$$CBV?$basic_string@DU?$char_traits@D@std@@V?$allocator@D@2@@std@@UsResourceFile@ResourcePack@olc@@@std@@PEAX@1@PEBV?$_Tree_val@U?$_Tree_simple_types@U?$pair@$$CBV?$basic_string@DU?$char_traits@D@std@@V?$allocator@D@2@@std@@UsResourceFile@ResourcePack@olc@@@std@@@std@@@1@@Z
	??0?$_Tree_val@U?$_Tree_simple_types@U?$pair@$$CBV?$basic_string@DU?$char_traits@D@std@@V?$allocator@D@2@@std@@UsResourceFile@ResourcePack@olc@@@std@@@std@@@std@@QEAA@XZ
	??0?$_Tree_val@U?$_Tree_simple_types@U?$pair@$$CB_KW4Key@olc@@@std@@@std@@@std@@QEAA@XZ
	??0?$_Tuple_val@V?$basic_string@DU?$char_traits@D@std@@V?$allocator@D@2@@std@@@std@@QEAA@AEBU01@@Z
	??0?$_Uhash_compare@W4Key@olc@@U?$hash@W4Key@olc@@@std@@U?$equal_to@W4Key@olc@@@4@@std@@QEAA@XZ
	??0?$_Umap_traits@W4Key@olc@@V?$tuple@V?$basic_string@DU?$char_traits@D@std@@V?$allocator@D@2@@std@@V12@V12@V12@@std@@V?$_Uhash_compare@W4Key@olc@@U?$hash@W4Key@olc@@@std@@U?$equal_to@W4Key@olc@@@4@@4@V?$allocator@U?$pair@$$CBW4Key@olc@@V?$tuple@V?$basic_string@DU?$char_traits@D@std@@V?$allocator@D@2@@std@@V12@V12@V12@@std@@@std@@@4@$0A@@std@@QEAA@AEBV?$_Uhash_compare@W4Key@olc@@U?$hash@W4Key@olc@@@std@@U?$equal_to@W4Key@olc@@@4@@1@@Z
	??0?$_Uninitialized_backout@PEAV?$_List_unchecked_iterator@V?$_List_val@U?$_List_simple_types@U?$pair@$$CBW4Key@olc@@V?$tuple@V?$basic_string@DU?$char_traits@D@std@@V?$allocator@D@2@@std@@V12@V12@V12@@std@@@std@@@std@@@std@@@std@@@std@@QEAA@PEAV?$_List_unchecked_iterator@V?$_List_val@U?$_List_simple_types@U?$pair@$$CBW4Key@olc@@V?$tuple@V?$basic_string@DU?$char_traits@D@std@@V?$allocator@D@2@@std@@V12@V12@V12@@std@@@std@@@std@@@std@@@1@@Z
	??0?$_Uninitialized_backout_al@V?$allocator@D@std@@@std@@QEAA@PEADAEAV?$allocator@D@1@@Z
	??0?$_Uninitialized_backout_al@V?$allocator@E@std@@@std@@QEAA@PEAEAEAV?$allocator@E@1@@Z
	??0?$_Uninitialized_backout_al@V?$allocator@H@std@@@std@@QEAA@PEAHAEAV?$allocator@H@1@@Z
	??0?$_Uninitialized_backout_al@V?$allocator@M@std@@@std@@QEAA@PEAMAEAV?$allocator@M@1@@Z
	??0?$_Uninitialized_backout_al@V?$allocator@PEAVPGEX@olc@@@std@@@std@@QEAA@PEAPEAVPGEX@olc@@AEAV?$allocator@PEAVPGEX@olc@@@1@@Z
	??0?$_Uninitialized_backout_al@V?$allocator@PEAX@std@@@std@@QEAA@PEAPEAXAEAV?$allocator@PEAX@1@@Z
	??0?$_Uninitialized_backout_al@V?$allocator@U?$v_2d@H@olc@@@std@@@std@@QEAA@PEAU?$v_2d@H@olc@@AEAV?$allocator@U?$v_2d@H@olc@@@1@@Z
	??0?$_Uninitialized_backout_al@V?$allocator@U?$v_2d@M@olc@@@std@@@std@@QEAA@PEAU?$v_2d@M@olc@@AEAV?$allocator@U?$v_2d@M@olc@@@1@@Z
	??0?$_Uninitialized_backout_al@V?$allocator@UDecalInstance@olc@@@std@@@std@@QEAA@PEAUDecalInstance@olc@@AEAV?$allocator@UDecalInstance@olc@@@1@@Z
	??0?$_Uninitialized_backout_al@V?$allocator@UGPUTask@olc@@@std@@@std@@QEAA@PEAUGPUTask@olc@@AEAV?$allocator@UGPUTask@olc@@@1@@Z
	??0?$_Uninitialized_backout_al@V?$allocator@ULayerDesc@olc@@@std@@@std@@QEAA@PEAULayerDesc@olc@@AEAV?$allocator@ULayerDesc@olc@@@1@@Z
	??0?$_Uninitialized_backout_al@V?$allocator@UPixel@olc@@@std@@@std@@QEAA@PEAUPixel@olc@@AEAV?$allocator@UPixel@olc@@@1@@Z
	??0?$_Uninitialized_backout_al@V?$allocator@UVertex@GPUTask@olc@@@std@@@std@@QEAA@PEAUVertex@GPUTask@olc@@AEAV?$allocator@UVertex@GPUTask@olc@@@1@@Z
	??0?$_Uninitialized_backout_al@V?$allocator@V?$basic_string@DU?$char_traits@D@std@@V?$allocator@D@2@@std@@@std@@@std@@QEAA@PEAV?$basic_string@DU?$char_traits@D@std@@V?$allocator@D@2@@1@AEAV?$allocator@V?$basic_string@DU?$char_traits@D@std@@V?$allocator@D@2@@std@@@1@@Z
	??0?$_Vector_const_iterator@V?$_Vector_val@U?$_Simple_types@PEAVPGEX@olc@@@std@@@std@@@std@@QEAA@$$QEAV01@@Z
	??0?$_Vector_const_iterator@V?$_Vector_val@U?$_Simple_types@PEAVPGEX@olc@@@std@@@std@@@std@@QEAA@PEAPEAVPGEX@olc@@PEBU_Container_base12@1@@Z
	??0?$_Vector_const_iterator@V?$_Vector_val@U?$_Simple_types@ULayerDesc@olc@@@std@@@std@@@std@@QEAA@$$QEAV01@@Z
	??0?$_Vector_const_iterator@V?$_Vector_val@U?$_Simple_types@ULayerDesc@olc@@@std@@@std@@@std@@QEAA@AEBV01@@Z
	??0?$_Vector_const_iterator@V?$_Vector_val@U?$_Simple_types@ULayerDesc@olc@@@std@@@std@@@std@@QEAA@PEAULayerDesc@olc@@PEBU_Container_base12@1@@Z
	??0?$_Vector_const_iterator@V?$_Vector_val@U?$_Simple_types@UPixel@olc@@@std@@@std@@@std@@QEAA@$$QEAV01@@Z
	??0?$_Vector_const_iterator@V?$_Vector_val@U?$_Simple_types@UPixel@olc@@@std@@@std@@@std@@QEAA@PEAUPixel@olc@@PEBU_Container_base12@1@@Z
	??0?$_Vector_iterator@V?$_Vector_val@U?$_Simple_types@PEAVPGEX@olc@@@std@@@std@@@std@@QEAA@$$QEAV01@@Z
	??0?$_Vector_iterator@V?$_Vector_val@U?$_Simple_types@PEAVPGEX@olc@@@std@@@std@@@std@@QEAA@PEAPEAVPGEX@olc@@PEBU_Container_base12@1@@Z
	??0?$_Vector_iterator@V?$_Vector_val@U?$_Simple_types@ULayerDesc@olc@@@std@@@std@@@std@@QEAA@$$QEAV01@@Z
	??0?$_Vector_iterator@V?$_Vector_val@U?$_Simple_types@ULayerDesc@olc@@@std@@@std@@@std@@QEAA@AEBV01@@Z
	??0?$_Vector_iterator@V?$_Vector_val@U?$_Simple_types@ULayerDesc@olc@@@std@@@std@@@std@@QEAA@PEAULayerDesc@olc@@PEBU_Container_base12@1@@Z
	??0?$_Vector_iterator@V?$_Vector_val@U?$_Simple_types@UPixel@olc@@@std@@@std@@@std@@QEAA@$$QEAV01@@Z
	??0?$_Vector_iterator@V?$_Vector_val@U?$_Simple_types@UPixel@olc@@@std@@@std@@@std@@QEAA@PEAUPixel@olc@@PEBU_Container_base12@1@@Z
	??0?$_Vector_val@U?$_Simple_types@D@std@@@std@@QEAA@PEAD00@Z
	??0?$_Vector_val@U?$_Simple_types@D@std@@@std@@QEAA@XZ
	??0?$_Vector_val@U?$_Simple_types@E@std@@@std@@QEAA@XZ
	??0?$_Vector_val@U?$_Simple_types@H@std@@@std@@QEAA@XZ
	??0?$_Vector_val@U?$_Simple_types@M@std@@@std@@QEAA@PEAM00@Z
	??0?$_Vector_val@U?$_Simple_types@M@std@@@std@@QEAA@XZ
	??0?$_Vector_val@U?$_Simple_types@PEAVPGEX@olc@@@std@@@std@@QEAA@XZ
	??0?$_Vector_val@U?$_Simple_types@PEAX@std@@@std@@QEAA@XZ
	??0?$_Vector_val@U?$_Simple_types@U?$v_2d@H@olc@@@std@@@std@@QEAA@XZ
	??0?$_Vector_val@U?$_Simple_types@U?$v_2d@M@olc@@@std@@@std@@QEAA@PEAU?$v_2d@M@olc@@00@Z
	??0?$_Vector_val@U?$_Simple_types@U?$v_2d@M@olc@@@std@@@std@@QEAA@XZ
	??0?$_Vector_val@U?$_Simple_types@UDecalInstance@olc@@@std@@@std@@QEAA@PEAUDecalInstance@olc@@00@Z
	??0?$_Vector_val@U?$_Simple_types@UDecalInstance@olc@@@std@@@std@@QEAA@XZ
	??0?$_Vector_val@U?$_Simple_types@UGPUTask@olc@@@std@@@std@@QEAA@PEAUGPUTask@olc@@00@Z
	??0?$_Vector_val@U?$_Simple_types@UGPUTask@olc@@@std@@@std@@QEAA@XZ
	??0?$_Vector_val@U?$_Simple_types@ULayerDesc@olc@@@std@@@std@@QEAA@XZ
	??0?$_Vector_val@U?$_Simple_types@UPixel@olc@@@std@@@std@@QEAA@PEAUPixel@olc@@00@Z
	??0?$_Vector_val@U?$_Simple_types@UPixel@olc@@@std@@@std@@QEAA@XZ
	??0?$_Vector_val@U?$_Simple_types@UVertex@GPUTask@olc@@@std@@@std@@QEAA@PEAUVertex@GPUTask@olc@@00@Z
	??0?$_Vector_val@U?$_Simple_types@UVertex@GPUTask@olc@@@std@@@std@@QEAA@XZ
	??0?$_Vector_val@U?$_Simple_types@V?$_List_unchecked_iterator@V?$_List_val@U?$_List_simple_types@U?$pair@$$CBW4Key@olc@@V?$tuple@V?$basic_string@DU?$char_traits@D@std@@V?$allocator@D@2@@std@@V12@V12@V12@@std@@@std@@@std@@@std@@@std@@@std@@@std@@QEAA@XZ
	??0?$_Vector_val@U?$_Simple_types@V?$basic_string@DU?$char_traits@D@std@@V?$allocator@D@2@@std@@@std@@@std@@QEAA@XZ
	??0?$allocator@D@std@@QEAA@XZ
	??0?$allocator@E@std@@QEAA@XZ
	??0?$allocator@H@std@@QEAA@XZ
	??0?$allocator@M@std@@QEAA@XZ
	??0?$allocator@PEAVPGEX@olc@@@std@@QEAA@XZ
	??0?$allocator@PEAX@std@@QEAA@XZ
	??0?$allocator@U?$_List_node@V?$basic_string@DU?$char_traits@D@std@@V?$allocator@D@2@@std@@PEAX@std@@@std@@QEAA@XZ
	??0?$allocator@U?$_Tree_node@U?$pair@$$CBV?$basic_string@DU?$char_traits@D@std@@V?$allocator@D@2@@std@@UsResourceFile@ResourcePack@olc@@@std@@PEAX@std@@@std@@QEAA@XZ
	??0?$allocator@U?$_Tree_node@U?$pair@$$CB_KW4Key@olc@@@std@@PEAX@std@@@std@@QEAA@XZ
	??0?$allocator@U?$pair@$$CBW4Key@olc@@V?$tuple@V?$basic_string@DU?$char_traits@D@std@@V?$allocator@D@2@@std@@V12@V12@V12@@std@@@std@@@std@@QEAA@XZ
	??0?$allocator@U?$v_2d@H@olc@@@std@@QEAA@XZ
	??0?$allocator@U?$v_2d@M@olc@@@std@@QEAA@XZ
	??0?$allocator@UDecalInstance@olc@@@std@@QEAA@XZ
	??0?$allocator@UGPUTask@olc@@@std@@QEAA@XZ
	??0?$allocator@ULayerDesc@olc@@@std@@QEAA@XZ
	??0?$allocator@UPixel@olc@@@std@@QEAA@XZ
	??0?$allocator@UVertex@GPUTask@olc@@@std@@QEAA@XZ
	??0?$allocator@V?$basic_string@DU?$char_traits@D@std@@V?$allocator@D@2@@std@@@std@@QEAA@XZ
	??0?$allocator@_W@std@@QEAA@XZ
	??0?$array@U?$v_2d@M@olc@@$03@std@@QEAA@XZ
	??0?$atomic@_N@std@@QEAA@_N@Z
	??0?$basic_filebuf@DU?$char_traits@D@std@@@std@@QEAA@XZ
	??0?$basic_ifstream@DU?$char_traits@D@std@@@std@@QEAA@AEBV?$basic_string@DU?$char_traits@D@std@@V?$allocator@D@2@@1@HH@Z
	??0?$basic_ifstream@DU?$char_traits@D@std@@@std@@QEAA@PEBDHH@Z
	??0?$basic_ifstream@DU?$char_traits@D@std@@@std@@QEAA@XZ
	??0?$basic_ofstream@DU?$char_traits@D@std@@@std@@QEAA@AEBV?$basic_string@DU?$char_traits@D@std@@V?$allocator@D@2@@1@HH@Z
	??0?$basic_ofstream@DU?$char_traits@D@std@@@std@@QEAA@PEBDHH@Z
	??0?$basic_string@DU?$char_traits@D@std@@V?$allocator@D@2@@std@@QEAA@$$QEAV01@@Z
	??0?$basic_string@DU?$char_traits@D@std@@V?$allocator@D@2@@std@@QEAA@AEBV01@@Z
	??0?$basic_string@DU?$char_traits@D@std@@V?$allocator@D@2@@std@@QEAA@AEBV?$allocator@D@1@@Z
	??0?$basic_string@DU?$char_traits@D@std@@V?$allocator@D@2@@std@@QEAA@QEBD@Z
	??0?$basic_string@DU?$char_traits@D@std@@V?$allocator@D@2@@std@@QEAA@QEBD_K@Z
	??0?$basic_string@DU?$char_traits@D@std@@V?$allocator@D@2@@std@@QEAA@U_String_constructor_concat_tag@1@AEAV01@1@Z
	??0?$basic_string@DU?$char_traits@D@std@@V?$allocator@D@2@@std@@QEAA@U_String_constructor_concat_tag@1@AEBV01@QEBD_K23@Z
	??0?$basic_string@DU?$char_traits@D@std@@V?$allocator@D@2@@std@@QEAA@XZ
	??0?$basic_string@DU?$char_traits@D@std@@V?$allocator@D@2@@std@@QEAA@_KD@Z
	??0?$basic_string@_WU?$char_traits@_W@std@@V?$allocator@_W@2@@std@@QEAA@$$QEAV01@@Z
	??0?$basic_string@_WU?$char_traits@_W@std@@V?$allocator@_W@2@@std@@QEAA@AEBV01@@Z
	??0?$basic_string@_WU?$char_traits@_W@std@@V?$allocator@_W@2@@std@@QEAA@QEB_W@Z
	??0?$basic_string@_WU?$char_traits@_W@std@@V?$allocator@_W@2@@std@@QEAA@XZ
	??0?$basic_string_view@DU?$char_traits@D@std@@@std@@QEAA@QEBD@Z
	??0?$basic_string_view@DU?$char_traits@D@std@@@std@@QEAA@QEBD_K@Z
	??0?$basic_string_view@_WU?$char_traits@_W@std@@@std@@QEAA@QEB_W_K@Z
	??0?$basic_stringbuf@DU?$char_traits@D@std@@V?$allocator@D@2@@std@@QEAA@H@Z
	??0?$basic_stringstream@DU?$char_traits@D@std@@V?$allocator@D@2@@std@@QEAA@XZ
	??0?$fpos@U_Mbstatet@@@std@@QEAA@U_Mbstatet@@_J@Z
	??0?$fpos@U_Mbstatet@@@std@@QEAA@_J@Z
	??0?$function@$$A6A?AUPixel@olc@@HHAEBU12@0@Z@std@@QEAA@AEBV01@@Z
	??0?$function@$$A6A?AUPixel@olc@@HHAEBU12@0@Z@std@@QEAA@XZ
	??0?$function@$$A6AXXZ@std@@QEAA@$$QEAV01@@Z
	??0?$function@$$A6AXXZ@std@@QEAA@$$T@Z
	??0?$function@$$A6AXXZ@std@@QEAA@AEBV01@@Z
	??0?$initializer_list@M@std@@QEAA@PEBM0@Z
	??0?$initializer_list@PEAX@std@@QEAA@PEBQEAX0@Z
	??0?$initializer_list@U?$pair@$$CBW4Key@olc@@V?$tuple@V?$basic_string@DU?$char_traits@D@std@@V?$allocator@D@2@@std@@V12@V12@V12@@std@@@std@@@std@@QEAA@PEBU?$pair@$$CBW4Key@olc@@V?$tuple@V?$basic_string@DU?$char_traits@D@std@@V?$allocator@D@2@@std@@V12@V12@V12@@std@@@1@0@Z
	??0?$initializer_list@U?$v_2d@M@olc@@@std@@QEAA@PEBU?$v_2d@M@olc@@0@Z
	??0?$initializer_list@UPixel@olc@@@std@@QEAA@PEBUPixel@olc@@0@Z
	??0?$initializer_list@UVertex@GPUTask@olc@@@std@@QEAA@PEBUVertex@GPUTask@olc@@0@Z
	??0?$list@U?$pair@$$CBW4Key@olc@@V?$tuple@V?$basic_string@DU?$char_traits@D@std@@V?$allocator@D@2@@std@@V12@V12@V12@@std@@@std@@V?$allocator@U?$pair@$$CBW4Key@olc@@V?$tuple@V?$basic_string@DU?$char_traits@D@std@@V?$allocator@D@2@@std@@V12@V12@V12@@std@@@std@@@2@@std@@QEAA@AEBV?$allocator@U?$pair@$$CBW4Key@olc@@V?$tuple@V?$basic_string@DU?$char_traits@D@std@@V?$allocator@D@2@@std@@V12@V12@V12@@std@@@std@@@1@@Z
	??0?$list@V?$basic_string@DU?$char_traits@D@std@@V?$allocator@D@2@@std@@V?$allocator@V?$basic_string@DU?$char_traits@D@std@@V?$allocator@D@2@@std@@@2@@std@@QEAA@XZ
	??0?$map@V?$basic_string@DU?$char_traits@D@std@@V?$allocator@D@2@@std@@UsResourceFile@ResourcePack@olc@@U?$less@V?$basic_string@DU?$char_traits@D@std@@V?$allocator@D@2@@std@@@2@V?$allocator@U?$pair@$$CBV?$basic_string@DU?$char_traits@D@std@@V?$allocator@D@2@@std@@UsResourceFile@ResourcePack@olc@@@std@@@2@@std@@QEAA@XZ
	??0?$map@_KW4Key@olc@@U?$less@_K@std@@V?$allocator@U?$pair@$$CB_KW4Key@olc@@@std@@@4@@std@@QEAA@XZ
	??0?$pair@$$CBW4Key@olc@@V?$tuple@V?$basic_string@DU?$char_traits@D@std@@V?$allocator@D@2@@std@@V12@V12@V12@@std@@@std@@QEAA@AEBU01@@Z
	??0?$reverse_iterator@V?$_Vector_iterator@V?$_Vector_val@U?$_Simple_types@ULayerDesc@olc@@@std@@@std@@@std@@@std@@QEAA@V?$_Vector_iterator@V?$_Vector_val@U?$_Simple_types@ULayerDesc@olc@@@std@@@std@@@1@@Z
	??0?$time_point@Usteady_clock@chrono@std@@V?$duration@_JU?$ratio@$00$0DLJKMKAA@@std@@@23@@chrono@std@@QEAA@AEBV?$duration@_JU?$ratio@$00$0DLJKMKAA@@std@@@12@@Z
	??0?$time_point@Usystem_clock@chrono@std@@V?$duration@_JU?$ratio@$00$0JIJGIA@@std@@@23@@chrono@std@@QEAA@AEBV?$duration@_JU?$ratio@$00$0JIJGIA@@std@@@12@@Z
	??0?$time_point@Usystem_clock@chrono@std@@V?$duration@_JU?$ratio@$00$0JIJGIA@@std@@@23@@chrono@std@@QEAA@XZ
	??0?$tuple@$$QEA_K@std@@QEAA@$$QEAV01@@Z
	??0?$tuple@$$V@std@@QEAA@AEBV01@@Z
	??0?$tuple@AEBV?$basic_string@DU?$char_traits@D@std@@V?$allocator@D@2@@std@@@std@@QEAA@$$QEAV01@@Z
	??0?$tuple@V?$basic_string@DU?$char_traits@D@std@@V?$allocator@D@2@@std@@@std@@QEAA@AEBV01@@Z
	??0?$tuple@V?$basic_string@DU?$char_traits@D@std@@V?$allocator@D@2@@std@@V12@@std@@QEAA@AEBV01@@Z
	??0?$tuple@V?$basic_string@DU?$char_traits@D@std@@V?$allocator@D@2@@std@@V12@V12@@std@@QEAA@AEBV01@@Z
	??0?$tuple@V?$basic_string@DU?$char_traits@D@std@@V?$allocator@D@2@@std@@V12@V12@V12@@std@@QEAA@AEBV01@@Z
	??0?$unordered_map@W4Key@olc@@V?$tuple@V?$basic_string@DU?$char_traits@D@std@@V?$allocator@D@2@@std@@V12@V12@V12@@std@@U?$hash@W4Key@olc@@@4@U?$equal_to@W4Key@olc@@@4@V?$allocator@U?$pair@$$CBW4Key@olc@@V?$tuple@V?$basic_string@DU?$char_traits@D@std@@V?$allocator@D@2@@std@@V12@V12@V12@@std@@@std@@@4@@std@@QEAA@XZ
	??0?$v_2d@H@olc@@QEAA@HH@Z
	??0?$v_2d@H@olc@@QEAA@XZ
	??0?$v_2d@M@olc@@QEAA@MM@Z
	??0?$v_2d@M@olc@@QEAA@XZ
	??0?$vector@DV?$allocator@D@std@@@std@@QEAA@$$QEAV01@@Z
	??0?$vector@DV?$allocator@D@std@@@std@@QEAA@AEBV01@@Z
	??0?$vector@DV?$allocator@D@std@@@std@@QEAA@XZ
	??0?$vector@DV?$allocator@D@std@@@std@@QEAA@_KAEBV?$allocator@D@1@@Z
	??0?$vector@EV?$allocator@E@std@@@std@@QEAA@_KAEBV?$allocator@E@1@@Z
	??0?$vector@HV?$allocator@H@std@@@std@@QEAA@XZ
	??0?$vector@MV?$allocator@M@std@@@std@@QEAA@$$QEAV01@@Z
	??0?$vector@MV?$allocator@M@std@@@std@@QEAA@AEBV01@@Z
	??0?$vector@MV?$allocator@M@std@@@std@@QEAA@XZ
	??0?$vector@PEAVPGEX@olc@@V?$allocator@PEAVPGEX@olc@@@std@@@std@@QEAA@XZ
	??0?$vector@PEAXV?$allocator@PEAX@std@@@std@@QEAA@V?$initializer_list@PEAX@1@AEBV?$allocator@PEAX@1@@Z
	??0?$vector@U?$v_2d@H@olc@@V?$allocator@U?$v_2d@H@olc@@@std@@@std@@QEAA@XZ
	??0?$vector@U?$v_2d@M@olc@@V?$allocator@U?$v_2d@M@olc@@@std@@@std@@QEAA@$$QEAV01@@Z
	??0?$vector@U?$v_2d@M@olc@@V?$allocator@U?$v_2d@M@olc@@@std@@@std@@QEAA@AEBV01@@Z
	??0?$vector@U?$v_2d@M@olc@@V?$allocator@U?$v_2d@M@olc@@@std@@@std@@QEAA@V?$initializer_list@U?$v_2d@M@olc@@@1@AEBV?$allocator@U?$v_2d@M@olc@@@1@@Z
	??0?$vector@U?$v_2d@M@olc@@V?$allocator@U?$v_2d@M@olc@@@std@@@std@@QEAA@XZ
	??0?$vector@U?$v_2d@M@olc@@V?$allocator@U?$v_2d@M@olc@@@std@@@std@@QEAA@_KAEBV?$allocator@U?$v_2d@M@olc@@@1@@Z
	??0?$vector@UDecalInstance@olc@@V?$allocator@UDecalInstance@olc@@@std@@@std@@QEAA@$$QEAV01@@Z
	??0?$vector@UDecalInstance@olc@@V?$allocator@UDecalInstance@olc@@@std@@@std@@QEAA@XZ
	??0?$vector@UGPUTask@olc@@V?$allocator@UGPUTask@olc@@@std@@@std@@QEAA@$$QEAV01@@Z
	??0?$vector@UGPUTask@olc@@V?$allocator@UGPUTask@olc@@@std@@@std@@QEAA@XZ
	??0?$vector@ULayerDesc@olc@@V?$allocator@ULayerDesc@olc@@@std@@@std@@QEAA@XZ
	??0?$vector@UPixel@olc@@V?$allocator@UPixel@olc@@@std@@@std@@QEAA@$$QEAV01@@Z
	??0?$vector@UPixel@olc@@V?$allocator@UPixel@olc@@@std@@@std@@QEAA@AEBV01@@Z
	??0?$vector@UPixel@olc@@V?$allocator@UPixel@olc@@@std@@@std@@QEAA@V?$initializer_list@UPixel@olc@@@1@AEBV?$allocator@UPixel@olc@@@1@@Z
	??0?$vector@UPixel@olc@@V?$allocator@UPixel@olc@@@std@@@std@@QEAA@XZ
	??0?$vector@UVertex@GPUTask@olc@@V?$allocator@UVertex@GPUTask@olc@@@std@@@std@@QEAA@$$QEAV01@@Z
	??0?$vector@UVertex@GPUTask@olc@@V?$allocator@UVertex@GPUTask@olc@@@std@@@std@@QEAA@AEBV01@@Z
	??0?$vector@UVertex@GPUTask@olc@@V?$allocator@UVertex@GPUTask@olc@@@std@@@std@@QEAA@XZ
	??0?$vector@V?$basic_string@DU?$char_traits@D@std@@V?$allocator@D@2@@std@@V?$allocator@V?$basic_string@DU?$char_traits@D@std@@V?$allocator@D@2@@std@@@2@@std@@QEAA@XZ
	??0Bitmap@Gdiplus@@QEAA@PEAUIStream@@H@Z
	??0Bitmap@Gdiplus@@QEAA@PEB_WH@Z
	??0Color@Gdiplus@@QEAA@XZ
	??0Decal@olc@@QEAA@IPEAVSprite@1@@Z
	??0Decal@olc@@QEAA@PEAVSprite@1@_N1@Z
	??0DecalInstance@olc@@QEAA@$$QEAU01@@Z
	??0DecalInstance@olc@@QEAA@AEBU01@@Z
	??0DecalInstance@olc@@QEAA@XZ
	??0DecalPatch@olc@@QEAA@XZ
	??0GDIPlusStartup@olc@@QEAA@XZ
	??0GPUTask@olc@@QEAA@$$QEAU01@@Z
	??0GPUTask@olc@@QEAA@AEBU01@@Z
	??0GPUTask@olc@@QEAA@XZ
	??0GdiplusStartupInput@Gdiplus@@QEAA@P6AXW4DebugEventLevel@1@PEAD@ZHH@Z
	??0Image@Gdiplus@@IEAA@PEAVGpImage@1@W4Status@1@@Z
	??0Image@Gdiplus@@IEAA@XZ
	??0ImageLoader@olc@@QEAA@XZ
	??0ImageLoader_GDIPlus@olc@@QEAA@XZ
	??0LayerDesc@olc@@QEAA@$$QEAU01@@Z
	??0LayerDesc@olc@@QEAA@XZ
	??0MipsDisplay@@QEAA@XZ
	??0PGEX@olc@@QEAA@_N@Z
	??0Pixel@olc@@QEAA@EEEE@Z
	??0Pixel@olc@@QEAA@I@Z
	??0Pixel@olc@@QEAA@XZ
	??0PixelGameEngine@olc@@QEAA@XZ
	??0Platform@olc@@QEAA@XZ
	??0Platform_Windows@olc@@QEAA@XZ
	??0Renderable@olc@@QEAA@$$QEAV01@@Z
	??0Renderable@olc@@QEAA@XZ
	??0Renderer@olc@@QEAA@XZ
	??0Renderer_OGL10@olc@@QEAA@XZ
	??0ResourceBuffer@olc@@QEAA@AEAV?$basic_ifstream@DU?$char_traits@D@std@@@std@@II@Z
	??0ResourcePack@olc@@QEAA@XZ
	??0Sprite@olc@@QEAA@$$QEAV01@@Z
	??0Sprite@olc@@QEAA@AEBV?$basic_string@DU?$char_traits@D@std@@V?$allocator@D@2@@std@@PEAVResourcePack@1@@Z
	??0Sprite@olc@@QEAA@HH@Z
	??0Sprite@olc@@QEAA@XZ
	??0SpritePatch@olc@@QEAA@XZ
	??0_Basic_container_proxy_ptr12@std@@IEAA@XZ
	??0_Bxty@?$_String_val@U?$_Simple_types@D@std@@@std@@QEAA@XZ
	??0_Bxty@?$_String_val@U?$_Simple_types@_W@std@@@std@@QEAA@XZ
	??0_Clear_guard@?$_Hash@V?$_Umap_traits@W4Key@olc@@V?$tuple@V?$basic_string@DU?$char_traits@D@std@@V?$allocator@D@2@@std@@V12@V12@V12@@std@@V?$_Uhash_compare@W4Key@olc@@U?$hash@W4Key@olc@@@std@@U?$equal_to@W4Key@olc@@@4@@4@V?$allocator@U?$pair@$$CBW4Key@olc@@V?$tuple@V?$basic_string@DU?$char_traits@D@std@@V?$allocator@D@2@@std@@V12@V12@V12@@std@@@std@@@4@$0A@@std@@@std@@QEAA@QEAV12@@Z
	??0_Container_base12@std@@QEAA@XZ
	??0_Container_proxy@std@@QEAA@PEAU_Container_base12@1@@Z
	??0_File_status_and_error@filesystem@std@@QEAA@XZ
	??0_Iterator_base12@std@@QEAA@AEBU01@@Z
	??0_Iterator_base12@std@@QEAA@XZ
	??0_Iterator_base12_compatible@std@@QEAA@XZ
	??0_Range_eraser@?$_Hash@V?$_Umap_traits@W4Key@olc@@V?$tuple@V?$basic_string@DU?$char_traits@D@std@@V?$allocator@D@2@@std@@V12@V12@V12@@std@@V?$_Uhash_compare@W4Key@olc@@U?$hash@W4Key@olc@@@std@@U?$equal_to@W4Key@olc@@@4@@4@V?$allocator@U?$pair@$$CBW4Key@olc@@V?$tuple@V?$basic_string@DU?$char_traits@D@std@@V?$allocator@D@2@@std@@V12@V12@V12@@std@@@std@@@4@$0A@@std@@@std@@QEAA@AEAV?$list@U?$pair@$$CBW4Key@olc@@V?$tuple@V?$basic_string@DU?$char_traits@D@std@@V?$allocator@D@2@@std@@V12@V12@V12@@std@@@std@@V?$allocator@U?$pair@$$CBW4Key@olc@@V?$tuple@V?$basic_string@DU?$char_traits@D@std@@V?$allocator@D@2@@std@@V12@V12@V12@@std@@@std@@@2@@2@QEAU?$_List_node@U?$pair@$$CBW4Key@olc@@V?$tuple@V?$basic_string@DU?$char_traits@D@std@@V?$allocator@D@2@@std@@V12@V12@V12@@std@@@std@@PEAX@2@@Z
	??0_Sentry_base@?$basic_ostream@DU?$char_traits@D@std@@@std@@QEAA@AEAV12@@Z
	??0_System_error@std@@IEAA@Verror_code@1@@Z
	??0_System_error@std@@IEAA@Verror_code@1@AEBV?$basic_string@DU?$char_traits@D@std@@V?$allocator@D@2@@1@@Z
	??0_System_error@std@@QEAA@AEBV01@@Z
	??0_System_error_message@std@@QEAA@K@Z
	??0bad_alloc@std@@AEAA@QEBD@Z
	??0bad_alloc@std@@QEAA@AEBV01@@Z
	??0bad_array_new_length@std@@QEAA@AEBV01@@Z
	??0bad_array_new_length@std@@QEAA@XZ
	??0bad_cast@std@@QEAA@AEBV01@@Z
	??0bad_cast@std@@QEAA@XZ
	??0error_code@std@@QEAA@HAEBVerror_category@1@@Z
	??0error_code@std@@QEAA@XZ
	??0error_condition@std@@QEAA@HAEBVerror_category@1@@Z
	??0exception@std@@QEAA@AEBV01@@Z
	??0exception@std@@QEAA@QEBD@Z
	??0exception@std@@QEAA@QEBDH@Z
	??0file_status@filesystem@std@@QEAA@XZ
	??0filesystem_error@filesystem@std@@QEAA@AEBV012@@Z
	??0filesystem_error@filesystem@std@@QEAA@AEBV?$basic_string@DU?$char_traits@D@std@@V?$allocator@D@2@@2@AEBVpath@12@Verror_code@2@@Z
	??0path@filesystem@std@@QEAA@AEBV012@@Z
	??0path@filesystem@std@@QEAA@XZ
	??0runtime_error@std@@QEAA@AEBV01@@Z
	??0runtime_error@std@@QEAA@AEBV?$basic_string@DU?$char_traits@D@std@@V?$allocator@D@2@@1@@Z
	??0sentry@?$basic_ostream@DU?$char_traits@D@std@@@std@@QEAA@AEAV12@@Z
	??0system_error@std@@QEAA@AEBV01@@Z
	??0system_error@std@@QEAA@Verror_code@1@@Z
	??0system_error@std@@QEAA@Verror_code@1@AEBV?$basic_string@DU?$char_traits@D@std@@V?$allocator@D@2@@1@@Z
	??0thread@std@@QEAA@XZ
	??1?$_Alloc_construct_ptr@V?$allocator@U?$_List_node@U?$pair@$$CBW4Key@olc@@V?$tuple@V?$basic_string@DU?$char_traits@D@std@@V?$allocator@D@2@@std@@V12@V12@V12@@std@@@std@@PEAX@std@@@std@@@std@@QEAA@XZ
	??1?$_Alloc_construct_ptr@V?$allocator@U?$_List_node@V?$basic_string@DU?$char_traits@D@std@@V?$allocator@D@2@@std@@PEAX@std@@@std@@@std@@QEAA@XZ
	??1?$_Alloc_construct_ptr@V?$allocator@U?$_Tree_node@U?$pair@$$CBV?$basic_string@DU?$char_traits@D@std@@V?$allocator@D@2@@std@@UsResourceFile@ResourcePack@olc@@@std@@PEAX@std@@@std@@@std@@QEAA@XZ
	??1?$_Alloc_construct_ptr@V?$allocator@U?$_Tree_node@U?$pair@$$CB_KW4Key@olc@@@std@@PEAX@std@@@std@@@std@@QEAA@XZ
	??1?$_Compressed_pair@V?$allocator@D@std@@V?$_String_val@U?$_Simple_types@D@std@@@2@$00@std@@QEAA@XZ
	??1?$_Compressed_pair@V?$allocator@_W@std@@V?$_String_val@U?$_Simple_types@_W@std@@@2@$00@std@@QEAA@XZ
	??1?$_Container_proxy_ptr12@V?$allocator@U_Container_proxy@std@@@std@@@std@@QEAA@XZ
	??1?$_Func_class@UPixel@olc@@HHAEBU12@AEBU12@@std@@QEAA@XZ
	??1?$_Func_class@X$$V@std@@QEAA@XZ
	??1?$_Hash@V?$_Umap_traits@W4Key@olc@@V?$tuple@V?$basic_string@DU?$char_traits@D@std@@V?$allocator@D@2@@std@@V12@V12@V12@@std@@V?$_Uhash_compare@W4Key@olc@@U?$hash@W4Key@olc@@@std@@U?$equal_to@W4Key@olc@@@4@@4@V?$allocator@U?$pair@$$CBW4Key@olc@@V?$tuple@V?$basic_string@DU?$char_traits@D@std@@V?$allocator@D@2@@std@@V12@V12@V12@@std@@@std@@@4@$0A@@std@@@std@@QEAA@XZ
	??1?$_Hash_vec@V?$allocator@V?$_List_unchecked_iterator@V?$_List_val@U?$_List_simple_types@U?$pair@$$CBW4Key@olc@@V?$tuple@V?$basic_string@DU?$char_traits@D@std@@V?$allocator@D@2@@std@@V12@V12@V12@@std@@@std@@@std@@@std@@@std@@@std@@@std@@QEAA@XZ
	??1?$_List_const_iterator@V?$_List_val@U?$_List_simple_types@U?$pair@$$CBW4Key@olc@@V?$tuple@V?$basic_string@DU?$char_traits@D@std@@V?$allocator@D@2@@std@@V12@V12@V12@@std@@@std@@@std@@@std@@@std@@QEAA@XZ
	??1?$_List_const_iterator@V?$_List_val@U?$_List_simple_types@V?$basic_string@DU?$char_traits@D@std@@V?$allocator@D@2@@std@@@std@@@std@@@std@@QEAA@XZ
	??1?$_List_iterator@V?$_List_val@U?$_List_simple_types@U?$pair@$$CBW4Key@olc@@V?$tuple@V?$basic_string@DU?$char_traits@D@std@@V?$allocator@D@2@@std@@V12@V12@V12@@std@@@std@@@std@@@std@@@std@@QEAA@XZ
	??1?$_List_iterator@V?$_List_val@U?$_List_simple_types@V?$basic_string@DU?$char_traits@D@std@@V?$allocator@D@2@@std@@@std@@@std@@@std@@QEAA@XZ
	??1?$_List_node_emplace_op2@V?$allocator@U?$_List_node@U?$pair@$$CBW4Key@olc@@V?$tuple@V?$basic_string@DU?$char_traits@D@std@@V?$allocator@D@2@@std@@V12@V12@V12@@std@@@std@@PEAX@std@@@std@@@std@@QEAA@XZ
	??1?$_List_node_emplace_op2@V?$allocator@U?$_List_node@V?$basic_string@DU?$char_traits@D@std@@V?$allocator@D@2@@std@@PEAX@std@@@std@@@std@@QEAA@XZ
	??1?$_List_unchecked_const_iterator@V?$_List_val@U?$_List_simple_types@U?$pair@$$CBW4Key@olc@@V?$tuple@V?$basic_string@DU?$char_traits@D@std@@V?$allocator@D@2@@std@@V12@V12@V12@@std@@@std@@@std@@@std@@U_Iterator_base12@2@@std@@QEAA@XZ
	??1?$_List_unchecked_const_iterator@V?$_List_val@U?$_List_simple_types@V?$basic_string@DU?$char_traits@D@std@@V?$allocator@D@2@@std@@@std@@@std@@U_Iterator_base12@2@@std@@QEAA@XZ
	??1?$_String_val@U?$_Simple_types@D@std@@@std@@QEAA@XZ
	??1?$_String_val@U?$_Simple_types@_W@std@@@std@@QEAA@XZ
	??1?$_Tidy_guard@V?$vector@DV?$allocator@D@std@@@std@@@std@@QEAA@XZ
	??1?$_Tidy_guard@V?$vector@EV?$allocator@E@std@@@std@@@std@@QEAA@XZ
	??1?$_Tidy_guard@V?$vector@MV?$allocator@M@std@@@std@@@std@@QEAA@XZ
	??1?$_Tidy_guard@V?$vector@PEAXV?$allocator@PEAX@std@@@std@@@std@@QEAA@XZ
	??1?$_Tidy_guard@V?$vector@U?$v_2d@M@olc@@V?$allocator@U?$v_2d@M@olc@@@std@@@std@@@std@@QEAA@XZ
	??1?$_Tidy_guard@V?$vector@UPixel@olc@@V?$allocator@UPixel@olc@@@std@@@std@@@std@@QEAA@XZ
	??1?$_Tidy_guard@V?$vector@UVertex@GPUTask@olc@@V?$allocator@UVertex@GPUTask@olc@@@std@@@std@@@std@@QEAA@XZ
	??1?$_Tree@V?$_Tmap_traits@V?$basic_string@DU?$char_traits@D@std@@V?$allocator@D@2@@std@@UsResourceFile@ResourcePack@olc@@U?$less@V?$basic_string@DU?$char_traits@D@std@@V?$allocator@D@2@@std@@@2@V?$allocator@U?$pair@$$CBV?$basic_string@DU?$char_traits@D@std@@V?$allocator@D@2@@std@@UsResourceFile@ResourcePack@olc@@@std@@@2@$0A@@std@@@std@@QEAA@XZ
	??1?$_Tree@V?$_Tmap_traits@_KW4Key@olc@@U?$less@_K@std@@V?$allocator@U?$pair@$$CB_KW4Key@olc@@@std@@@4@$0A@@std@@@std@@QEAA@XZ
	??1?$_Tree_temp_node@V?$allocator@U?$_Tree_node@U?$pair@$$CBV?$basic_string@DU?$char_traits@D@std@@V?$allocator@D@2@@std@@UsResourceFile@ResourcePack@olc@@@std@@PEAX@std@@@std@@@std@@QEAA@XZ
	??1?$_Tree_temp_node@V?$allocator@U?$_Tree_node@U?$pair@$$CB_KW4Key@olc@@@std@@PEAX@std@@@std@@@std@@QEAA@XZ
	??1?$_Tree_temp_node_alloc@V?$allocator@U?$_Tree_node@U?$pair@$$CBV?$basic_string@DU?$char_traits@D@std@@V?$allocator@D@2@@std@@UsResourceFile@ResourcePack@olc@@@std@@PEAX@std@@@std@@@std@@QEAA@XZ
	??1?$_Tree_temp_node_alloc@V?$allocator@U?$_Tree_node@U?$pair@$$CB_KW4Key@olc@@@std@@PEAX@std@@@std@@@std@@QEAA@XZ
	??1?$_Tuple_val@V?$basic_string@DU?$char_traits@D@std@@V?$allocator@D@2@@std@@@std@@QEAA@XZ
	??1?$_Uninitialized_backout@PEAV?$_List_unchecked_iterator@V?$_List_val@U?$_List_simple_types@U?$pair@$$CBW4Key@olc@@V?$tuple@V?$basic_string@DU?$char_traits@D@std@@V?$allocator@D@2@@std@@V12@V12@V12@@std@@@std@@@std@@@std@@@std@@@std@@QEAA@XZ
	??1?$_Uninitialized_backout_al@V?$allocator@D@std@@@std@@QEAA@XZ
	??1?$_Uninitialized_backout_al@V?$allocator@E@std@@@std@@QEAA@XZ
	??1?$_Uninitialized_backout_al@V?$allocator@H@std@@@std@@QEAA@XZ
	??1?$_Uninitialized_backout_al@V?$allocator@M@std@@@std@@QEAA@XZ
	??1?$_Uninitialized_backout_al@V?$allocator@PEAVPGEX@olc@@@std@@@std@@QEAA@XZ
	??1?$_Uninitialized_backout_al@V?$allocator@PEAX@std@@@std@@QEAA@XZ
	??1?$_Uninitialized_backout_al@V?$allocator@U?$v_2d@H@olc@@@std@@@std@@QEAA@XZ
	??1?$_Uninitialized_backout_al@V?$allocator@U?$v_2d@M@olc@@@std@@@std@@QEAA@XZ
	??1?$_Uninitialized_backout_al@V?$allocator@UDecalInstance@olc@@@std@@@std@@QEAA@XZ
	??1?$_Uninitialized_backout_al@V?$allocator@UGPUTask@olc@@@std@@@std@@QEAA@XZ
	??1?$_Uninitialized_backout_al@V?$allocator@ULayerDesc@olc@@@std@@@std@@QEAA@XZ
	??1?$_Uninitialized_backout_al@V?$allocator@UPixel@olc@@@std@@@std@@QEAA@XZ
	??1?$_Uninitialized_backout_al@V?$allocator@UVertex@GPUTask@olc@@@std@@@std@@QEAA@XZ
	??1?$_Uninitialized_backout_al@V?$allocator@V?$basic_string@DU?$char_traits@D@std@@V?$allocator@D@2@@std@@@std@@@std@@QEAA@XZ
	??1?$_Vector_const_iterator@V?$_Vector_val@U?$_Simple_types@PEAVPGEX@olc@@@std@@@std@@@std@@QEAA@XZ
	??1?$_Vector_const_iterator@V?$_Vector_val@U?$_Simple_types@ULayerDesc@olc@@@std@@@std@@@std@@QEAA@XZ
	??1?$_Vector_const_iterator@V?$_Vector_val@U?$_Simple_types@UPixel@olc@@@std@@@std@@@std@@QEAA@XZ
	??1?$_Vector_iterator@V?$_Vector_val@U?$_Simple_types@PEAVPGEX@olc@@@std@@@std@@@std@@QEAA@XZ
	??1?$_Vector_iterator@V?$_Vector_val@U?$_Simple_types@ULayerDesc@olc@@@std@@@std@@@std@@QEAA@XZ
	??1?$_Vector_iterator@V?$_Vector_val@U?$_Simple_types@UPixel@olc@@@std@@@std@@@std@@QEAA@XZ
	??1?$basic_filebuf@DU?$char_traits@D@std@@@std@@UEAA@XZ
	??1?$basic_ifstream@DU?$char_traits@D@std@@@std@@UEAA@XZ
	??1?$basic_ofstream@DU?$char_traits@D@std@@@std@@UEAA@XZ
	??1?$basic_string@DU?$char_traits@D@std@@V?$allocator@D@2@@std@@QEAA@XZ
	??1?$basic_string@_WU?$char_traits@_W@std@@V?$allocator@_W@2@@std@@QEAA@XZ
	??1?$basic_stringbuf@DU?$char_traits@D@std@@V?$allocator@D@2@@std@@UEAA@XZ
	??1?$basic_stringstream@DU?$char_traits@D@std@@V?$allocator@D@2@@std@@UEAA@XZ
	??1?$function@$$A6A?AUPixel@olc@@HHAEBU12@0@Z@std@@QEAA@XZ
	??1?$function@$$A6AXXZ@std@@QEAA@XZ
	??1?$list@U?$pair@$$CBW4Key@olc@@V?$tuple@V?$basic_string@DU?$char_traits@D@std@@V?$allocator@D@2@@std@@V12@V12@V12@@std@@@std@@V?$allocator@U?$pair@$$CBW4Key@olc@@V?$tuple@V?$basic_string@DU?$char_traits@D@std@@V?$allocator@D@2@@std@@V12@V12@V12@@std@@@std@@@2@@std@@QEAA@XZ
	??1?$list@V?$basic_string@DU?$char_traits@D@std@@V?$allocator@D@2@@std@@V?$allocator@V?$basic_string@DU?$char_traits@D@std@@V?$allocator@D@2@@std@@@2@@std@@QEAA@XZ
	??1?$map@V?$basic_string@DU?$char_traits@D@std@@V?$allocator@D@2@@std@@UsResourceFile@ResourcePack@olc@@U?$less@V?$basic_string@DU?$char_traits@D@std@@V?$allocator@D@2@@std@@@2@V?$allocator@U?$pair@$$CBV?$basic_string@DU?$char_traits@D@std@@V?$allocator@D@2@@std@@UsResourceFile@ResourcePack@olc@@@std@@@2@@std@@QEAA@XZ
	??1?$map@_KW4Key@olc@@U?$less@_K@std@@V?$allocator@U?$pair@$$CB_KW4Key@olc@@@std@@@4@@std@@QEAA@XZ
	??1?$pair@$$CBV?$basic_string@DU?$char_traits@D@std@@V?$allocator@D@2@@std@@UsResourceFile@ResourcePack@olc@@@std@@QEAA@XZ
	??1?$pair@$$CBW4Key@olc@@V?$tuple@V?$basic_string@DU?$char_traits@D@std@@V?$allocator@D@2@@std@@V12@V12@V12@@std@@@std@@QEAA@XZ
	??1?$pair@V?$_List_iterator@V?$_List_val@U?$_List_simple_types@U?$pair@$$CBW4Key@olc@@V?$tuple@V?$basic_string@DU?$char_traits@D@std@@V?$allocator@D@2@@std@@V12@V12@V12@@std@@@std@@@std@@@std@@@std@@_N@std@@QEAA@XZ
	??1?$reverse_iterator@V?$_Vector_iterator@V?$_Vector_val@U?$_Simple_types@ULayerDesc@olc@@@std@@@std@@@std@@@std@@QEAA@XZ
	??1?$tuple@V?$basic_string@DU?$char_traits@D@std@@V?$allocator@D@2@@std@@@std@@QEAA@XZ
	??1?$tuple@V?$basic_string@DU?$char_traits@D@std@@V?$allocator@D@2@@std@@V12@@std@@QEAA@XZ
	??1?$tuple@V?$basic_string@DU?$char_traits@D@std@@V?$allocator@D@2@@std@@V12@V12@@std@@QEAA@XZ
	??1?$tuple@V?$basic_string@DU?$char_traits@D@std@@V?$allocator@D@2@@std@@V12@V12@V12@@std@@QEAA@XZ
	??1?$unique_ptr@V?$tuple@P8PixelGameEngine@olc@@EAAXXZPEAV12@@std@@U?$default_delete@V?$tuple@P8PixelGameEngine@olc@@EAAXXZPEAV12@@std@@@2@@std@@QEAA@XZ
	??1?$unique_ptr@VDecal@olc@@U?$default_delete@VDecal@olc@@@std@@@std@@QEAA@XZ
	??1?$unique_ptr@VImageLoader@olc@@U?$default_delete@VImageLoader@olc@@@std@@@std@@QEAA@XZ
	??1?$unique_ptr@VImageLoader_GDIPlus@olc@@U?$default_delete@VImageLoader_GDIPlus@olc@@@std@@@std@@QEAA@XZ
	??1?$unique_ptr@VMipsDisplay@@U?$default_delete@VMipsDisplay@@@std@@@std@@QEAA@XZ
	??1?$unique_ptr@VPlatform@olc@@U?$default_delete@VPlatform@olc@@@std@@@std@@QEAA@XZ
	??1?$unique_ptr@VPlatform_Windows@olc@@U?$default_delete@VPlatform_Windows@olc@@@std@@@std@@QEAA@XZ
	??1?$unique_ptr@VRenderer@olc@@U?$default_delete@VRenderer@olc@@@std@@@std@@QEAA@XZ
	??1?$unique_ptr@VRenderer_OGL10@olc@@U?$default_delete@VRenderer_OGL10@olc@@@std@@@std@@QEAA@XZ
	??1?$unique_ptr@VSprite@olc@@U?$default_delete@VSprite@olc@@@std@@@std@@QEAA@XZ
	??1?$unique_ptr@V_Facet_base@std@@U?$default_delete@V_Facet_base@std@@@2@@std@@QEAA@XZ
	??1?$unordered_map@W4Key@olc@@V?$tuple@V?$basic_string@DU?$char_traits@D@std@@V?$allocator@D@2@@std@@V12@V12@V12@@std@@U?$hash@W4Key@olc@@@4@U?$equal_to@W4Key@olc@@@4@V?$allocator@U?$pair@$$CBW4Key@olc@@V?$tuple@V?$basic_string@DU?$char_traits@D@std@@V?$allocator@D@2@@std@@V12@V12@V12@@std@@@std@@@4@@std@@QEAA@XZ
	??1?$vector@DV?$allocator@D@std@@@std@@QEAA@XZ
	??1?$vector@EV?$allocator@E@std@@@std@@QEAA@XZ
	??1?$vector@HV?$allocator@H@std@@@std@@QEAA@XZ
	??1?$vector@MV?$allocator@M@std@@@std@@QEAA@XZ
	??1?$vector@PEAVPGEX@olc@@V?$allocator@PEAVPGEX@olc@@@std@@@std@@QEAA@XZ
	??1?$vector@PEAXV?$allocator@PEAX@std@@@std@@QEAA@XZ
	??1?$vector@U?$v_2d@H@olc@@V?$allocator@U?$v_2d@H@olc@@@std@@@std@@QEAA@XZ
	??1?$vector@U?$v_2d@M@olc@@V?$allocator@U?$v_2d@M@olc@@@std@@@std@@QEAA@XZ
	??1?$vector@UDecalInstance@olc@@V?$allocator@UDecalInstance@olc@@@std@@@std@@QEAA@XZ
	??1?$vector@UGPUTask@olc@@V?$allocator@UGPUTask@olc@@@std@@@std@@QEAA@XZ
	??1?$vector@ULayerDesc@olc@@V?$allocator@ULayerDesc@olc@@@std@@@std@@QEAA@XZ
	??1?$vector@UPixel@olc@@V?$allocator@UPixel@olc@@@std@@@std@@QEAA@XZ
	??1?$vector@UVertex@GPUTask@olc@@V?$allocator@UVertex@GPUTask@olc@@@std@@@std@@QEAA@XZ
	??1?$vector@V?$basic_string@DU?$char_traits@D@std@@V?$allocator@D@2@@std@@V?$allocator@V?$basic_string@DU?$char_traits@D@std@@V?$allocator@D@2@@std@@@2@@std@@QEAA@XZ
	??1Bitmap@Gdiplus@@UEAA@XZ
	??1Decal@olc@@UEAA@XZ
	??1DecalInstance@olc@@QEAA@XZ
	??1GDIPlusStartup@olc@@QEAA@XZ
	??1GPUTask@olc@@QEAA@XZ
	??1Image@Gdiplus@@UEAA@XZ
	??1ImageLoader@olc@@UEAA@XZ
	??1ImageLoader_GDIPlus@olc@@UEAA@XZ
	??1LayerDesc@olc@@QEAA@XZ
	??1MipsDisplay@@UEAA@XZ
	??1PixelGameEngine@olc@@UEAA@XZ
	??1Platform@olc@@UEAA@XZ
	??1Platform_Windows@olc@@UEAA@XZ
	??1Renderable@olc@@QEAA@XZ
	??1Renderer@olc@@UEAA@XZ
	??1Renderer_OGL10@olc@@UEAA@XZ
	??1ResourceBuffer@olc@@UEAA@XZ
	??1ResourcePack@olc@@UEAA@XZ
	??1Sprite@olc@@QEAA@XZ
	??1_Bxty@?$_String_val@U?$_Simple_types@D@std@@@std@@QEAA@XZ
	??1_Bxty@?$_String_val@U?$_Simple_types@_W@std@@@std@@QEAA@XZ
	??1_Clear_guard@?$_Hash@V?$_Umap_traits@W4Key@olc@@V?$tuple@V?$basic_string@DU?$char_traits@D@std@@V?$allocator@D@2@@std@@V12@V12@V12@@std@@V?$_Uhash_compare@W4Key@olc@@U?$hash@W4Key@olc@@@std@@U?$equal_to@W4Key@olc@@@4@@4@V?$allocator@U?$pair@$$CBW4Key@olc@@V?$tuple@V?$basic_string@DU?$char_traits@D@std@@V?$allocator@D@2@@std@@V12@V12@V12@@std@@@std@@@4@$0A@@std@@@std@@QEAA@XZ
	??1_Generic_error_category@std@@UEAA@XZ
	??1_Iterator_base12@std@@QEAA@XZ
	??1_Range_eraser@?$_Hash@V?$_Umap_traits@W4Key@olc@@V?$tuple@V?$basic_string@DU?$char_traits@D@std@@V?$allocator@D@2@@std@@V12@V12@V12@@std@@V?$_Uhash_compare@W4Key@olc@@U?$hash@W4Key@olc@@@std@@U?$equal_to@W4Key@olc@@@4@@4@V?$allocator@U?$pair@$$CBW4Key@olc@@V?$tuple@V?$basic_string@DU?$char_traits@D@std@@V?$allocator@D@2@@std@@V12@V12@V12@@std@@@std@@@4@$0A@@std@@@std@@QEAA@XZ
	??1_Reallocation_guard@?$vector@DV?$allocator@D@std@@@std@@QEAA@XZ
	??1_Reallocation_guard@?$vector@HV?$allocator@H@std@@@std@@QEAA@XZ
	??1_Reallocation_guard@?$vector@MV?$allocator@M@std@@@std@@QEAA@XZ
	??1_Reallocation_guard@?$vector@PEAVPGEX@olc@@V?$allocator@PEAVPGEX@olc@@@std@@@std@@QEAA@XZ
	??1_Reallocation_guard@?$vector@U?$v_2d@H@olc@@V?$allocator@U?$v_2d@H@olc@@@std@@@std@@QEAA@XZ
	??1_Reallocation_guard@?$vector@U?$v_2d@M@olc@@V?$allocator@U?$v_2d@M@olc@@@std@@@std@@QEAA@XZ
	??1_Reallocation_guard@?$vector@UDecalInstance@olc@@V?$allocator@UDecalInstance@olc@@@std@@@std@@QEAA@XZ
	??1_Reallocation_guard@?$vector@UGPUTask@olc@@V?$allocator@UGPUTask@olc@@@std@@@std@@QEAA@XZ
	??1_Reallocation_guard@?$vector@ULayerDesc@olc@@V?$allocator@ULayerDesc@olc@@@std@@@std@@QEAA@XZ
	??1_Reallocation_guard@?$vector@UPixel@olc@@V?$allocator@UPixel@olc@@@std@@@std@@QEAA@XZ
	??1_Reallocation_guard@?$vector@UVertex@GPUTask@olc@@V?$allocator@UVertex@GPUTask@olc@@@std@@@std@@QEAA@XZ
	??1_Reallocation_guard@?$vector@V?$basic_string@DU?$char_traits@D@std@@V?$allocator@D@2@@std@@V?$allocator@V?$basic_string@DU?$char_traits@D@std@@V?$allocator@D@2@@std@@@2@@std@@QEAA@XZ
	??1_Sentry_base@?$basic_ostream@DU?$char_traits@D@std@@@std@@QEAA@XZ
	??1_System_error@std@@UEAA@XZ
	??1_System_error_category@std@@UEAA@XZ
	??1_System_error_message@std@@QEAA@XZ
	??1bad_alloc@std@@UEAA@XZ
	??1bad_array_new_length@std@@UEAA@XZ
	??1bad_cast@std@@UEAA@XZ
	??1error_category@std@@UEAA@XZ
	??1exception@std@@UEAA@XZ
	??1filesystem_error@filesystem@std@@UEAA@XZ
	??1locale@std@@QEAA@XZ
	??1path@filesystem@std@@QEAA@XZ
	??1runtime_error@std@@UEAA@XZ
	??1sentry@?$basic_ostream@DU?$char_traits@D@std@@@std@@QEAA@XZ
	??1system_error@std@@UEAA@XZ
	??1thread@std@@QEAA@XZ
	??2@YAPEAX_KPEAX@Z
	??2GdiplusBase@Gdiplus@@SAPEAX_K@Z
	??3GdiplusBase@Gdiplus@@SAXPEAX@Z
	??4?$_List_const_iterator@V?$_List_val@U?$_List_simple_types@V?$basic_string@DU?$char_traits@D@std@@V?$allocator@D@2@@std@@@std@@@std@@@std@@QEAAAEAV01@$$QEAV01@@Z
	??4?$_List_iterator@V?$_List_val@U?$_List_simple_types@V?$basic_string@DU?$char_traits@D@std@@V?$allocator@D@2@@std@@@std@@@std@@@std@@QEAAAEAV01@$$QEAV01@@Z
	??4?$_List_unchecked_const_iterator@V?$_List_val@U?$_List_simple_types@V?$basic_string@DU?$char_traits@D@std@@V?$allocator@D@2@@std@@@std@@@std@@U_Iterator_base12@2@@std@@QEAAAEAV01@$$QEAV01@@Z
	??4?$atomic@_N@std@@QEAA_N_N@Z
	??4?$basic_string@DU?$char_traits@D@std@@V?$allocator@D@2@@std@@QEAAAEAV01@AEBV01@@Z
	??4?$basic_string@DU?$char_traits@D@std@@V?$allocator@D@2@@std@@QEAAAEAV01@QEBD@Z
	??4?$function@$$A6A?AUPixel@olc@@HHAEBU12@0@Z@std@@QEAAAEAV01@AEBV01@@Z
	??4?$function@$$A6AXXZ@std@@QEAAAEAV01@AEBV01@@Z
	??4?$unique_ptr@VImageLoader@olc@@U?$default_delete@VImageLoader@olc@@@std@@@std@@QEAAAEAV01@$$T@Z
	??4?$unique_ptr@VSprite@olc@@U?$default_delete@VSprite@olc@@@std@@@std@@QEAAAEAV01@$$T@Z
	??4?$unordered_map@W4Key@olc@@V?$tuple@V?$basic_string@DU?$char_traits@D@std@@V?$allocator@D@2@@std@@V12@V12@V12@@std@@U?$hash@W4Key@olc@@@4@U?$equal_to@W4Key@olc@@@4@V?$allocator@U?$pair@$$CBW4Key@olc@@V?$tuple@V?$basic_string@DU?$char_traits@D@std@@V?$allocator@D@2@@std@@V12@V12@V12@@std@@@std@@@4@@std@@QEAAAEAV01@V?$initializer_list@U?$pair@$$CBW4Key@olc@@V?$tuple@V?$basic_string@DU?$char_traits@D@std@@V?$allocator@D@2@@std@@V12@V12@V12@@std@@@std@@@1@@Z
	??4?$vector@MV?$allocator@M@std@@@std@@QEAAAEAV01@V?$initializer_list@M@1@@Z
	??4?$vector@U?$v_2d@M@olc@@V?$allocator@U?$v_2d@M@olc@@@std@@@std@@QEAAAEAV01@V?$initializer_list@U?$v_2d@M@olc@@@1@@Z
	??4?$vector@UPixel@olc@@V?$allocator@UPixel@olc@@@std@@@std@@QEAAAEAV01@$$QEAV01@@Z
	??4?$vector@UPixel@olc@@V?$allocator@UPixel@olc@@@std@@@std@@QEAAAEAV01@V?$initializer_list@UPixel@olc@@@1@@Z
	??4?$vector@UVertex@GPUTask@olc@@V?$allocator@UVertex@GPUTask@olc@@@std@@@std@@QEAAAEAV01@V?$initializer_list@UVertex@GPUTask@olc@@@1@@Z
	??4?$vector@V?$basic_string@DU?$char_traits@D@std@@V?$allocator@D@2@@std@@V?$allocator@V?$basic_string@DU?$char_traits@D@std@@V?$allocator@D@2@@std@@@2@@std@@QEAAAEAV01@AEBV01@@Z
	??4Sprite@olc@@QEAAAEAV01@$$QEAV01@@Z
	??4_Iterator_base12@std@@QEAAAEAU01@AEBU01@@Z
	??4thread@std@@QEAAAEAV01@$$QEAV01@@Z
	??8?$_List_const_iterator@V?$_List_val@U?$_List_simple_types@V?$basic_string@DU?$char_traits@D@std@@V?$allocator@D@2@@std@@@std@@@std@@@std@@QEBA_NAEBV01@@Z
	??8?$_List_unchecked_const_iterator@V?$_List_val@U?$_List_simple_types@U?$pair@$$CBW4Key@olc@@V?$tuple@V?$basic_string@DU?$char_traits@D@std@@V?$allocator@D@2@@std@@V12@V12@V12@@std@@@std@@@std@@@std@@U_Iterator_base0@2@@std@@QEBA_NAEBV01@@Z
	??8?$_Vector_const_iterator@V?$_Vector_val@U?$_Simple_types@PEAVPGEX@olc@@@std@@@std@@@std@@QEBA_NAEBV01@@Z
	??8?$_Vector_const_iterator@V?$_Vector_val@U?$_Simple_types@ULayerDesc@olc@@@std@@@std@@@std@@QEBA_NAEBV01@@Z
	??8Pixel@olc@@QEBA_NAEBU01@@Z
	??8error_category@std@@QEBA_NAEBV01@@Z
	??8std@@YA_NAEBVerror_condition@0@0@Z
	??9?$_List_const_iterator@V?$_List_val@U?$_List_simple_types@V?$basic_string@DU?$char_traits@D@std@@V?$allocator@D@2@@std@@@std@@@std@@@std@@QEBA_NAEBV01@@Z
	??9?$_List_unchecked_const_iterator@V?$_List_val@U?$_List_simple_types@U?$pair@$$CBW4Key@olc@@V?$tuple@V?$basic_string@DU?$char_traits@D@std@@V?$allocator@D@2@@std@@V12@V12@V12@@std@@@std@@@std@@@std@@U_Iterator_base0@2@@std@@QEBA_NAEBV01@@Z
	??9?$_Tree_unchecked_const_iterator@V?$_Tree_val@U?$_Tree_simple_types@U?$pair@$$CBV?$basic_string@DU?$char_traits@D@std@@V?$allocator@D@2@@std@@UsResourceFile@ResourcePack@olc@@@std@@@std@@@std@@U_Iterator_base0@2@@std@@QEBA_NU_Default_sentinel@1@@Z
	??9?$_Vector_const_iterator@V?$_Vector_val@U?$_Simple_types@ULayerDesc@olc@@@std@@@std@@@std@@QEBA_NAEBV01@@Z
	??9Pixel@olc@@QEBA_NAEBU01@@Z
	??A?$array@M$01@std@@QEBAAEBM_K@Z
	??A?$array@M$02@std@@QEBAAEBM_K@Z
	??A?$array@M$03@std@@QEBAAEBM_K@Z
	??A?$array@U?$v_2d@M@olc@@$03@std@@QEAAAEAU?$v_2d@M@olc@@_K@Z
	??A?$array@U?$v_2d@M@olc@@$03@std@@QEBAAEBU?$v_2d@M@olc@@_K@Z
	??A?$basic_string@DU?$char_traits@D@std@@V?$allocator@D@2@@std@@QEAAAEAD_K@Z
	??A?$basic_string@DU?$char_traits@D@std@@V?$allocator@D@2@@std@@QEBAAEBD_K@Z
	??A?$map@V?$basic_string@DU?$char_traits@D@std@@V?$allocator@D@2@@std@@UsResourceFile@ResourcePack@olc@@U?$less@V?$basic_string@DU?$char_traits@D@std@@V?$allocator@D@2@@std@@@2@V?$allocator@U?$pair@$$CBV?$basic_string@DU?$char_traits@D@std@@V?$allocator@D@2@@std@@UsResourceFile@ResourcePack@olc@@@std@@@2@@std@@QEAAAEAUsResourceFile@ResourcePack@olc@@AEBV?$basic_string@DU?$char_traits@D@std@@V?$allocator@D@2@@1@@Z
	??A?$map@_KW4Key@olc@@U?$less@_K@std@@V?$allocator@U?$pair@$$CB_KW4Key@olc@@@std@@@4@@std@@QEAAAEAW4Key@olc@@$$QEA_K@Z
	??A?$vector@DV?$allocator@D@std@@@std@@QEAAAEAD_K@Z
	??A?$vector@MV?$allocator@M@std@@@std@@QEAAAEAM_K@Z
	??A?$vector@MV?$allocator@M@std@@@std@@QEBAAEBM_K@Z
	??A?$vector@PEAXV?$allocator@PEAX@std@@@std@@QEAAAEAPEAX_K@Z
	??A?$vector@U?$v_2d@H@olc@@V?$allocator@U?$v_2d@H@olc@@@std@@@std@@QEAAAEAU?$v_2d@H@olc@@_K@Z
	??A?$vector@U?$v_2d@M@olc@@V?$allocator@U?$v_2d@M@olc@@@std@@@std@@QEAAAEAU?$v_2d@M@olc@@_K@Z
	??A?$vector@U?$v_2d@M@olc@@V?$allocator@U?$v_2d@M@olc@@@std@@@std@@QEBAAEBU?$v_2d@M@olc@@_K@Z
	??A?$vector@ULayerDesc@olc@@V?$allocator@ULayerDesc@olc@@@std@@@std@@QEAAAEAULayerDesc@olc@@_K@Z
	??A?$vector@UPixel@olc@@V?$allocator@UPixel@olc@@@std@@@std@@QEAAAEAUPixel@olc@@_K@Z
	??A?$vector@UPixel@olc@@V?$allocator@UPixel@olc@@@std@@@std@@QEBAAEBUPixel@olc@@_K@Z
	??A?$vector@UVertex@GPUTask@olc@@V?$allocator@UVertex@GPUTask@olc@@@std@@@std@@QEAAAEAUVertex@GPUTask@olc@@_K@Z
	??A?$vector@UVertex@GPUTask@olc@@V?$allocator@UVertex@GPUTask@olc@@@std@@@std@@QEBAAEBUVertex@GPUTask@olc@@_K@Z
	??A?$vector@V?$array@M$01@std@@V?$allocator@V?$array@M$01@std@@@2@@std@@QEBAAEBV?$array@M$01@1@_K@Z
	??A?$vector@V?$array@M$03@std@@V?$allocator@V?$array@M$03@std@@@2@@std@@QEBAAEBV?$array@M$03@1@_K@Z
	??A?$vector@V?$basic_string@DU?$char_traits@D@std@@V?$allocator@D@2@@std@@V?$allocator@V?$basic_string@DU?$char_traits@D@std@@V?$allocator@D@2@@std@@@2@@std@@QEAAAEAV?$basic_string@DU?$char_traits@D@std@@V?$allocator@D@2@@1@_K@Z
	??B?$atomic@_N@std@@QEBA_NXZ
	??B?$basic_string@_WU?$char_traits@_W@std@@V?$allocator@_W@2@@std@@QEBA?AV?$basic_string_view@_WU?$char_traits@_W@std@@@1@XZ
	??B?$fpos@U_Mbstatet@@@std@@QEBA_JXZ
	??B?$function@$$A6AXXZ@std@@QEBA_NXZ
	??B?$unique_ptr@VMipsDisplay@@U?$default_delete@VMipsDisplay@@@std@@@std@@QEBA_NXZ
	??B?$unique_ptr@VPlatform@olc@@U?$default_delete@VPlatform@olc@@@std@@@std@@QEBA_NXZ
	??BDecal@olc@@QEAA?AUDecalPatch@1@XZ
	??BSprite@olc@@QEAA?AUSpritePatch@1@XZ
	??Berror_code@std@@QEBA_NXZ
	??Bsentry@?$basic_ostream@DU?$char_traits@D@std@@@std@@QEBA_NXZ
	??C?$_List_iterator@V?$_List_val@U?$_List_simple_types@V?$basic_string@DU?$char_traits@D@std@@V?$allocator@D@2@@std@@@std@@@std@@@std@@QEBAPEAV?$basic_string@DU?$char_traits@D@std@@V?$allocator@D@2@@1@XZ
	??C?$_Vector_iterator@V?$_Vector_val@U?$_Simple_types@ULayerDesc@olc@@@std@@@std@@@std@@QEBAPEAULayerDesc@olc@@XZ
	??C?$reverse_iterator@V?$_Vector_iterator@V?$_Vector_val@U?$_Simple_types@ULayerDesc@olc@@@std@@@std@@@std@@@std@@QEBAPEAULayerDesc@olc@@XZ
	??C?$unique_ptr@VImageLoader@olc@@U?$default_delete@VImageLoader@olc@@@std@@@std@@QEBAPEAVImageLoader@olc@@XZ
	??C?$unique_ptr@VMipsDisplay@@U?$default_delete@VMipsDisplay@@@std@@@std@@QEBAPEAVMipsDisplay@@XZ
	??C?$unique_ptr@VPlatform@olc@@U?$default_delete@VPlatform@olc@@@std@@@std@@QEBAPEAVPlatform@olc@@XZ
	??C?$unique_ptr@VRenderer@olc@@U?$default_delete@VRenderer@olc@@@std@@@std@@QEBAPEAVRenderer@olc@@XZ
	??C?$unique_ptr@VSprite@olc@@U?$default_delete@VSprite@olc@@@std@@@std@@QEBAPEAVSprite@olc@@XZ
	??D?$_List_const_iterator@V?$_List_val@U?$_List_simple_types@V?$basic_string@DU?$char_traits@D@std@@V?$allocator@D@2@@std@@@std@@@std@@@std@@QEBAAEBV?$basic_string@DU?$char_traits@D@std@@V?$allocator@D@2@@1@XZ
	??D?$_List_iterator@V?$_List_val@U?$_List_simple_types@V?$basic_string@DU?$char_traits@D@std@@V?$allocator@D@2@@std@@@std@@@std@@@std@@QEBAAEAV?$basic_string@DU?$char_traits@D@std@@V?$allocator@D@2@@1@XZ
	??D?$_List_unchecked_const_iterator@V?$_List_val@U?$_List_simple_types@U?$pair@$$CBW4Key@olc@@V?$tuple@V?$basic_string@DU?$char_traits@D@std@@V?$allocator@D@2@@std@@V12@V12@V12@@std@@@std@@@std@@@std@@U_Iterator_base0@2@@std@@QEBAAEBU?$pair@$$CBW4Key@olc@@V?$tuple@V?$basic_string@DU?$char_traits@D@std@@V?$allocator@D@2@@std@@V12@V12@V12@@std@@@1@XZ
	??D?$_List_unchecked_iterator@V?$_List_val@U?$_List_simple_types@U?$pair@$$CBW4Key@olc@@V?$tuple@V?$basic_string@DU?$char_traits@D@std@@V?$allocator@D@2@@std@@V12@V12@V12@@std@@@std@@@std@@@std@@@std@@QEBAAEAU?$pair@$$CBW4Key@olc@@V?$tuple@V?$basic_string@DU?$char_traits@D@std@@V?$allocator@D@2@@std@@V12@V12@V12@@std@@@1@XZ
	??D?$_Tree_unchecked_const_iterator@V?$_Tree_val@U?$_Tree_simple_types@U?$pair@$$CBV?$basic_string@DU?$char_traits@D@std@@V?$allocator@D@2@@std@@UsResourceFile@ResourcePack@olc@@@std@@@std@@@std@@U_Iterator_base0@2@@std@@QEBAAEBU?$pair@$$CBV?$basic_string@DU?$char_traits@D@std@@V?$allocator@D@2@@std@@UsResourceFile@ResourcePack@olc@@@1@XZ
	??D?$_Tree_unchecked_iterator@V?$_Tree_val@U?$_Tree_simple_types@U?$pair@$$CBV?$basic_string@DU?$char_traits@D@std@@V?$allocator@D@2@@std@@UsResourceFile@ResourcePack@olc@@@std@@@std@@@std@@@std@@QEBAAEAU?$pair@$$CBV?$basic_string@DU?$char_traits@D@std@@V?$allocator@D@2@@std@@UsResourceFile@ResourcePack@olc@@@1@XZ
	??DPixel@olc@@QEBA?AU01@AEBU01@@Z
	??DPixel@olc@@QEBA?AU01@M@Z
	??E?$_List_const_iterator@V?$_List_val@U?$_List_simple_types@V?$basic_string@DU?$char_traits@D@std@@V?$allocator@D@2@@std@@@std@@@std@@@std@@QEAAAEAV01@XZ
	??E?$_List_iterator@V?$_List_val@U?$_List_simple_types@V?$basic_string@DU?$char_traits@D@std@@V?$allocator@D@2@@std@@@std@@@std@@@std@@QEAA?AV01@H@Z
	??E?$_List_unchecked_const_iterator@V?$_List_val@U?$_List_simple_types@U?$pair@$$CBW4Key@olc@@V?$tuple@V?$basic_string@DU?$char_traits@D@std@@V?$allocator@D@2@@std@@V12@V12@V12@@std@@@std@@@std@@@std@@U_Iterator_base0@2@@std@@QEAAAEAV01@XZ
	??E?$_List_unchecked_iterator@V?$_List_val@U?$_List_simple_types@U?$pair@$$CBW4Key@olc@@V?$tuple@V?$basic_string@DU?$char_traits@D@std@@V?$allocator@D@2@@std@@V12@V12@V12@@std@@@std@@@std@@@std@@@std@@QEAAAEAV01@XZ
	??E?$_Tree_unchecked_const_iterator@V?$_Tree_val@U?$_Tree_simple_types@U?$pair@$$CBV?$basic_string@DU?$char_traits@D@std@@V?$allocator@D@2@@std@@UsResourceFile@ResourcePack@olc@@@std@@@std@@@std@@U_Iterator_base0@2@@std@@QEAAAEAV01@XZ
	??E?$_Tree_unchecked_iterator@V?$_Tree_val@U?$_Tree_simple_types@U?$pair@$$CBV?$basic_string@DU?$char_traits@D@std@@V?$allocator@D@2@@std@@UsResourceFile@ResourcePack@olc@@@std@@@std@@@std@@@std@@QEAAAEAV01@XZ
	??E?$reverse_iterator@V?$_Vector_iterator@V?$_Vector_val@U?$_Simple_types@ULayerDesc@olc@@@std@@@std@@@std@@@std@@QEAAAEAV01@XZ
	??F?$_List_const_iterator@V?$_List_val@U?$_List_simple_types@V?$basic_string@DU?$char_traits@D@std@@V?$allocator@D@2@@std@@@std@@@std@@@std@@QEAAAEAV01@XZ
	??F?$_List_iterator@V?$_List_val@U?$_List_simple_types@V?$basic_string@DU?$char_traits@D@std@@V?$allocator@D@2@@std@@@std@@@std@@@std@@QEAA?AV01@H@Z
	??F?$_List_unchecked_const_iterator@V?$_List_val@U?$_List_simple_types@U?$pair@$$CBW4Key@olc@@V?$tuple@V?$basic_string@DU?$char_traits@D@std@@V?$allocator@D@2@@std@@V12@V12@V12@@std@@@std@@@std@@@std@@U_Iterator_base0@2@@std@@QEAAAEAV01@XZ
	??F?$_Vector_const_iterator@V?$_Vector_val@U?$_Simple_types@ULayerDesc@olc@@@std@@@std@@@std@@QEAAAEAV01@XZ
	??F?$_Vector_iterator@V?$_Vector_val@U?$_Simple_types@ULayerDesc@olc@@@std@@@std@@@std@@QEAAAEAV01@XZ
	??GPixel@olc@@QEBA?AU01@AEBU01@@Z
	??HPixel@olc@@QEBA?AU01@AEBU01@@Z
	??I@YA?AW4__std_fs_file_attr@@W40@0@Z
	??KPixel@olc@@QEBA?AU01@M@Z
	??M?$_Array_const_iterator@U?$v_2d@M@olc@@$03@std@@QEBA_NAEBV01@@Z
	??N?$_Array_const_iterator@U?$v_2d@M@olc@@$03@std@@QEBA_NAEBV01@@Z
	??R<lambda_319d5e083f45f90dcdce5dce53cbb275>@@SA@QEADQEBD_KD@Z
	??R<lambda_6e107f859707de1a71dcca60860853b1>@@SA@QEADQEBD_K12@Z
	??R<lambda_9013ee9e23efe4882b67eff5b0ecf103>@@SA@QEADQEBD_K@Z
	??R<lambda_a132b9f505f015b07a26cb4edca31da2>@@SA@QEAD_KQEBD@Z
	??R<lambda_a3050a43f3157934f354774ab3dd2e02>@@SA@QEA_WQEB_W_K2_W@Z
	??R<lambda_e1befb086ad3257e3f042a63030725f7>@@SA@QEADQEBD_K2D@Z
	??R<lambda_e9b99a188f9a316a73b83d1e72db26de>@@SA@QEADQEBD_K212@Z
	??R?$_Conditionally_enabled_hash@W4Key@olc@@$00@std@@SA_KAEBW4Key@olc@@@Z
	??R?$_Func_class@UPixel@olc@@HHAEBU12@AEBU12@@std@@QEBA?AUPixel@olc@@HHAEBU23@0@Z
	??R?$_Func_class@X$$V@std@@QEBAXXZ
	??R?$default_delete@V?$tuple@P8PixelGameEngine@olc@@EAAXXZPEAV12@@std@@@std@@QEBAXPEAV?$tuple@P8PixelGameEngine@olc@@EAAXXZPEAV12@@1@@Z
	??R?$default_delete@VDecal@olc@@@std@@QEBAXPEAVDecal@olc@@@Z
	??R?$default_delete@VImageLoader@olc@@@std@@QEBAXPEAVImageLoader@olc@@@Z
	??R?$default_delete@VImageLoader_GDIPlus@olc@@@std@@QEBAXPEAVImageLoader_GDIPlus@olc@@@Z
	??R?$default_delete@VMipsDisplay@@@std@@QEBAXPEAVMipsDisplay@@@Z
	??R?$default_delete@VPlatform@olc@@@std@@QEBAXPEAVPlatform@olc@@@Z
	??R?$default_delete@VPlatform_Windows@olc@@@std@@QEBAXPEAVPlatform_Windows@olc@@@Z
	??R?$default_delete@VRenderer@olc@@@std@@QEBAXPEAVRenderer@olc@@@Z
	??R?$default_delete@VRenderer_OGL10@olc@@@std@@QEBAXPEAVRenderer_OGL10@olc@@@Z
	??R?$default_delete@VSprite@olc@@@std@@QEBAXPEAVSprite@olc@@@Z
	??R?$default_delete@V_Facet_base@std@@@std@@QEBAXPEAV_Facet_base@1@@Z
	??R?$equal_to@W4Key@olc@@@std@@QEBA_NAEBW4Key@olc@@0@Z
	??R?$less@V?$basic_string@DU?$char_traits@D@std@@V?$allocator@D@2@@std@@@std@@QEBA_NAEBV?$basic_string@DU?$char_traits@D@std@@V?$allocator@D@2@@1@0@Z
	??R?$less@_K@std@@QEBA_NAEB_K0@Z
	??U@YA?AW4__std_fs_stats_flags@@W40@0@Z
	??XPixel@olc@@QEAAAEAU01@AEBU01@@Z
	??XPixel@olc@@QEAAAEAU01@M@Z
	??Y?$basic_string@DU?$char_traits@D@std@@V?$allocator@D@2@@std@@QEAAAEAV01@AEBV01@@Z
	??Y?$basic_string@DU?$char_traits@D@std@@V?$allocator@D@2@@std@@QEAAAEAV01@D@Z
	??Y?$basic_string@DU?$char_traits@D@std@@V?$allocator@D@2@@std@@QEAAAEAV01@QEBD@Z
	??Y?$duration@_JU?$ratio@$00$0DLJKMKAA@@std@@@chrono@std@@QEAAAEAV012@AEBV012@@Z
	??Y?$fpos@U_Mbstatet@@@std@@QEAAAEAV01@_J@Z
	??Y?$time_point@Usteady_clock@chrono@std@@V?$duration@_JU?$ratio@$00$0DLJKMKAA@@std@@@23@@chrono@std@@QEAAAEAV012@AEBV?$duration@_JU?$ratio@$00$0DLJKMKAA@@std@@@12@@Z
	??YPixel@olc@@QEAAAEAU01@AEBU01@@Z
	??ZPixel@olc@@QEAAAEAU01@AEBU01@@Z
	??_0Pixel@olc@@QEAAAEAU01@M@Z
	??_7?$basic_filebuf@DU?$char_traits@D@std@@@std@@6B@
	??_7?$basic_ifstream@DU?$char_traits@D@std@@@std@@6B@
	??_7?$basic_ofstream@DU?$char_traits@D@std@@@std@@6B@
	??_7?$basic_stringbuf@DU?$char_traits@D@std@@V?$allocator@D@2@@std@@6B@
	??_7?$basic_stringstream@DU?$char_traits@D@std@@V?$allocator@D@2@@std@@6B@
	??_7Bitmap@Gdiplus@@6B@
	??_7Decal@olc@@6B@
	??_7Image@Gdiplus@@6B@
	??_7ImageLoader@olc@@6B@
	??_7ImageLoader_GDIPlus@olc@@6B@
	??_7MipsDisplay@@6B@
	??_7PGEX@olc@@6B@
	??_7PixelGameEngine@olc@@6B@
	??_7Platform@olc@@6B@
	??_7Platform_Windows@olc@@6B@
	??_7Renderer@olc@@6B@
	??_7Renderer_OGL10@olc@@6B@
	??_7ResourceBuffer@olc@@6B@
	??_7ResourcePack@olc@@6B@
	??_7_Generic_error_category@std@@6B@
	??_7_System_error@std@@6B@
	??_7_System_error_category@std@@6B@
	??_7bad_alloc@std@@6B@
	??_7bad_array_new_length@std@@6B@
	??_7bad_cast@std@@6B@
	??_7exception@std@@6B@
	??_7filesystem_error@filesystem@std@@6B@
	??_7runtime_error@std@@6B@
	??_7system_error@std@@6B@
	??_D?$basic_ifstream@DU?$char_traits@D@std@@@std@@QEAAXXZ
	??_D?$basic_ofstream@DU?$char_traits@D@std@@@std@@QEAAXXZ
	??_D?$basic_stringstream@DU?$char_traits@D@std@@V?$allocator@D@2@@std@@QEAAXXZ
	??_H@YAXPEAX_K1P6APEAX0@Z@Z
	??__Ksv@string_view_literals@literals@std@@YA?AV?$basic_string_view@DU?$char_traits@D@std@@@3@PEBD_K@Z
	?AddFile@ResourcePack@olc@@QEAA_NAEBV?$basic_string@DU?$char_traits@D@std@@V?$allocator@D@2@@std@@@Z
	?ApplicationCleanUp@Platform_Windows@olc@@UEAA?AW4rcode@2@XZ
	?ApplicationStartUp@Platform_Windows@olc@@UEAA?AW4rcode@2@XZ
	?ApplyTexture@Renderer_OGL10@olc@@UEAAXI@Z
	?Clear@MipsDisplay@@QEAAXI@Z
	?Clear@PixelGameEngine@olc@@QEAAXUPixel@2@@Z
	?ClearBuffer@PixelGameEngine@olc@@QEAAXUPixel@2@_N@Z
	?ClearBuffer@Renderer_OGL10@olc@@UEAAXUPixel@2@_N@Z
	?ClipLineToDrawTarget@PixelGameEngine@olc@@QEAA_NAEAU?$v_2d@H@2@0@Z
	?Clone@Image@Gdiplus@@UEAAPEAV12@XZ
	?ConsoleCaptureStdOut@PixelGameEngine@olc@@QEAAX_N@Z
	?ConsoleClear@PixelGameEngine@olc@@QEAAXXZ
	?ConsoleOut@PixelGameEngine@olc@@QEAAAEAV?$basic_stringstream@DU?$char_traits@D@std@@V?$allocator@D@2@@std@@XZ
	?ConsoleShow@PixelGameEngine@olc@@QEAAXAEBW4Key@2@_N@Z
	?Construct@PixelGameEngine@olc@@QEAA?AW4rcode@2@HHHH_N000@Z
	?ConvertKeycode@PixelGameEngine@olc@@QEBA?AW4Key@2@H@Z
	?ConvertS2W@ImageLoader_GDIPlus@olc@@AEAA?AV?$basic_string@_WU?$char_traits@_W@std@@V?$allocator@_W@2@@std@@V?$basic_string@DU?$char_traits@D@std@@V?$allocator@D@2@@4@@Z
	?Create@Renderable@olc@@QEAAXII_N0@Z
	?CreateDevice@Renderer_OGL10@olc@@UEAA?AW4rcode@2@V?$vector@PEAXV?$allocator@PEAX@std@@@std@@_N1@Z
	?CreateGraphics@Platform_Windows@olc@@UEAA?AW4rcode@2@_N0AEBU?$v_2d@H@2@1@Z
	?CreateLayer@PixelGameEngine@olc@@QEAAIXZ
	?CreateTexture@Renderer_OGL10@olc@@UEAAIII_N0@Z
	?CreateWindowPane@Platform_Windows@olc@@UEAA?AW4rcode@2@AEBU?$v_2d@H@2@AEAU42@_N@Z
	?Decal@Renderable@olc@@QEBAPEAV02@XZ
	?DeleteTexture@Renderer_OGL10@olc@@UEAAII@Z
	?DestroyDevice@Renderer_OGL10@olc@@UEAA?AW4rcode@2@XZ
	?DisplayFrame@Renderer_OGL10@olc@@UEAAXXZ
	?DoGPUTask@Renderer_OGL10@olc@@UEAAXAEBUGPUTask@2@@Z
	?Draw@PixelGameEngine@olc@@QEAA_NAEBU?$v_2d@H@2@UPixel@2@@Z
	?Draw@PixelGameEngine@olc@@UEAA_NHHUPixel@2@@Z
	?DrawCircle@PixelGameEngine@olc@@QEAAXAEBU?$v_2d@H@2@HUPixel@2@E@Z
	?DrawCircle@PixelGameEngine@olc@@QEAAXHHHUPixel@2@E@Z
	?DrawDecal@PixelGameEngine@olc@@QEAAXAEBU?$v_2d@M@2@AEBUDecalPatch@2@0@Z
	?DrawDecal@PixelGameEngine@olc@@QEAAXAEBU?$v_2d@M@2@PEAVDecal@2@0AEBUPixel@2@@Z
	?DrawDecal@Renderer_OGL10@olc@@UEAAXAEBUDecalInstance@2@@Z
	?DrawExplicitDecal@PixelGameEngine@olc@@QEAAXPEAVDecal@2@PEBU?$v_2d@M@2@1PEBUPixel@2@I@Z
	?DrawLayerQuad@Renderer_OGL10@olc@@UEAAXAEBU?$v_2d@M@2@0UPixel@2@@Z
	?DrawLine@PixelGameEngine@olc@@QEAAXAEBU?$v_2d@H@2@0UPixel@2@I@Z
	?DrawLine@PixelGameEngine@olc@@QEAAXHHHHUPixel@2@I@Z
	?DrawLineDecal@PixelGameEngine@olc@@QEAAXAEBU?$v_2d@M@2@0UPixel@2@@Z
	?DrawPartialDecal@PixelGameEngine@olc@@QEAAXAEBU?$v_2d@M@2@0PEAVDecal@2@00AEBUPixel@2@@Z
	?DrawPartialDecal@PixelGameEngine@olc@@QEAAXAEBU?$v_2d@M@2@PEAVDecal@2@000AEBUPixel@2@@Z
	?DrawPartialRotatedDecal@PixelGameEngine@olc@@QEAAXAEBU?$v_2d@M@2@PEAVDecal@2@M0000AEBUPixel@2@@Z
	?DrawPartialSprite@PixelGameEngine@olc@@QEAAXAEBU?$v_2d@H@2@PEAVSprite@2@00IE@Z
	?DrawPartialSprite@PixelGameEngine@olc@@QEAAXHHPEAVSprite@2@HHHHIE@Z
	?DrawPartialWarpedDecal@PixelGameEngine@olc@@QEAAXPEAVDecal@2@AEAY03$$CBU?$v_2d@M@2@AEBU42@2AEBUPixel@2@@Z
	?DrawPartialWarpedDecal@PixelGameEngine@olc@@QEAAXPEAVDecal@2@AEBV?$array@U?$v_2d@M@olc@@$03@std@@AEBU?$v_2d@M@2@2AEBUPixel@2@@Z
	?DrawPartialWarpedDecal@PixelGameEngine@olc@@QEAAXPEAVDecal@2@PEBU?$v_2d@M@2@AEBU42@2AEBUPixel@2@@Z
	?DrawPolygonDecal@PixelGameEngine@olc@@QEAAXPEAVDecal@2@AEBV?$vector@U?$v_2d@M@olc@@V?$allocator@U?$v_2d@M@olc@@@std@@@std@@1AEBV?$vector@UPixel@olc@@V?$allocator@UPixel@olc@@@std@@@5@@Z
	?DrawPolygonDecal@PixelGameEngine@olc@@QEAAXPEAVDecal@2@AEBV?$vector@U?$v_2d@M@olc@@V?$allocator@U?$v_2d@M@olc@@@std@@@std@@1AEBV?$vector@UPixel@olc@@V?$allocator@UPixel@olc@@@std@@@5@UPixel@2@@Z
	?DrawPolygonDecal@PixelGameEngine@olc@@QEAAXPEAVDecal@2@AEBV?$vector@U?$v_2d@M@olc@@V?$allocator@U?$v_2d@M@olc@@@std@@@std@@1UPixel@2@@Z
	?DrawPolygonDecal@PixelGameEngine@olc@@QEAAXPEAVDecal@2@AEBV?$vector@U?$v_2d@M@olc@@V?$allocator@U?$v_2d@M@olc@@@std@@@std@@AEBV?$vector@MV?$allocator@M@std@@@5@1AEBV?$vector@UPixel@olc@@V?$allocator@UPixel@olc@@@std@@@5@UPixel@2@@Z
	?DrawPolygonDecal@PixelGameEngine@olc@@QEAAXPEAVDecal@2@AEBV?$vector@U?$v_2d@M@olc@@V?$allocator@U?$v_2d@M@olc@@@std@@@std@@AEBV?$vector@MV?$allocator@M@std@@@5@1UPixel@2@@Z
	?DrawRect@PixelGameEngine@olc@@QEAAXAEBU?$v_2d@H@2@0UPixel@2@@Z
	?DrawRect@PixelGameEngine@olc@@QEAAXHHHHUPixel@2@@Z
	?DrawRectDecal@PixelGameEngine@olc@@QEAAXAEBU?$v_2d@M@2@0UPixel@2@@Z
	?DrawRotatedDecal@PixelGameEngine@olc@@QEAAXAEBU?$v_2d@M@2@PEAVDecal@2@M00AEBUPixel@2@@Z
	?DrawRotatedStringDecal@PixelGameEngine@olc@@QEAAXAEBU?$v_2d@M@2@AEBV?$basic_string@DU?$char_traits@D@std@@V?$allocator@D@2@@std@@M0UPixel@2@0@Z
	?DrawRotatedStringPropDecal@PixelGameEngine@olc@@QEAAXAEBU?$v_2d@M@2@AEBV?$basic_string@DU?$char_traits@D@std@@V?$allocator@D@2@@std@@M0UPixel@2@0@Z
	?DrawSprite@PixelGameEngine@olc@@QEAAXAEBU?$v_2d@H@2@PEAVSprite@2@IE@Z
	?DrawSprite@PixelGameEngine@olc@@QEAAXAEBU?$v_2d@M@2@AEBUSpritePatch@2@0@Z
	?DrawSprite@PixelGameEngine@olc@@QEAAXHHPEAVSprite@2@IE@Z
	?DrawString@PixelGameEngine@olc@@QEAAXAEBU?$v_2d@H@2@AEBV?$basic_string@DU?$char_traits@D@std@@V?$allocator@D@2@@std@@UPixel@2@I@Z
	?DrawString@PixelGameEngine@olc@@QEAAXHHAEBV?$basic_string@DU?$char_traits@D@std@@V?$allocator@D@2@@std@@UPixel@2@I@Z
	?DrawStringDecal@PixelGameEngine@olc@@QEAAXAEBU?$v_2d@M@2@AEBV?$basic_string@DU?$char_traits@D@std@@V?$allocator@D@2@@std@@UPixel@2@0@Z
	?DrawStringProp@PixelGameEngine@olc@@QEAAXAEBU?$v_2d@H@2@AEBV?$basic_string@DU?$char_traits@D@std@@V?$allocator@D@2@@std@@UPixel@2@I@Z
	?DrawStringProp@PixelGameEngine@olc@@QEAAXHHAEBV?$basic_string@DU?$char_traits@D@std@@V?$allocator@D@2@@std@@UPixel@2@I@Z
	?DrawStringPropDecal@PixelGameEngine@olc@@QEAAXAEBU?$v_2d@M@2@AEBV?$basic_string@DU?$char_traits@D@std@@V?$allocator@D@2@@std@@UPixel@2@0@Z
	?DrawTriangle@PixelGameEngine@olc@@QEAAXAEBU?$v_2d@H@2@00UPixel@2@@Z
	?DrawTriangle@PixelGameEngine@olc@@QEAAXHHHHHHUPixel@2@@Z
	?DrawWarpedDecal@PixelGameEngine@olc@@QEAAXPEAVDecal@2@AEAY03$$CBU?$v_2d@M@2@AEBUPixel@2@@Z
	?DrawWarpedDecal@PixelGameEngine@olc@@QEAAXPEAVDecal@2@AEBV?$array@U?$v_2d@M@olc@@$03@std@@AEBUPixel@2@@Z
	?DrawWarpedDecal@PixelGameEngine@olc@@QEAAXPEAVDecal@2@PEBU?$v_2d@M@2@AEBUPixel@2@@Z
	?Duplicate@Sprite@olc@@QEAAPEAV12@AEBU?$v_2d@H@2@0@Z
	?Duplicate@Sprite@olc@@QEAAPEAV12@XZ
	?EnableLayer@PixelGameEngine@olc@@QEAAXE_N@Z
	?EnablePixelTransfer@PixelGameEngine@olc@@QEAAX_N@Z
	?EngineThread@PixelGameEngine@olc@@AEAAXXZ
	?FillCircle@PixelGameEngine@olc@@QEAAXAEBU?$v_2d@H@2@HUPixel@2@@Z
	?FillCircle@PixelGameEngine@olc@@QEAAXHHHUPixel@2@@Z
	?FillRect@PixelGameEngine@olc@@QEAAXAEBU?$v_2d@H@2@0UPixel@2@@Z
	?FillRect@PixelGameEngine@olc@@QEAAXHHHHUPixel@2@@Z
	?FillRectDecal@PixelGameEngine@olc@@QEAAXAEBU?$v_2d@M@2@0UPixel@2@@Z
	?FillTexturedPolygon@PixelGameEngine@olc@@QEAAXAEBV?$vector@U?$v_2d@M@olc@@V?$allocator@U?$v_2d@M@olc@@@std@@@std@@0AEBV?$vector@UPixel@olc@@V?$allocator@UPixel@olc@@@std@@@4@PEAVSprite@2@W4DecalStructure@2@@Z
	?FillTexturedTriangle@PixelGameEngine@olc@@QEAAXV?$vector@U?$v_2d@M@olc@@V?$allocator@U?$v_2d@M@olc@@@std@@@std@@0V?$vector@UPixel@olc@@V?$allocator@UPixel@olc@@@std@@@4@PEAVSprite@2@@Z
	?FillTriangle@PixelGameEngine@olc@@QEAAXAEBU?$v_2d@H@2@00UPixel@2@@Z
	?FillTriangle@PixelGameEngine@olc@@QEAAXHHHHHHUPixel@2@@Z
	?FillTriangleDecal@PixelGameEngine@olc@@QEAAXAEBU?$v_2d@M@2@00UPixel@2@@Z
	?Flush@MipsDisplay@@QEAAXXZ
	?FromFile@Bitmap@Gdiplus@@SAPEAV12@PEB_WH@Z
	?FromStream@Bitmap@Gdiplus@@SAPEAV12@PEAUIStream@@H@Z
	?GetAlpha@Color@Gdiplus@@QEBAEXZ
	?GetBlue@Color@Gdiplus@@QEBAEXZ
	?GetData@Sprite@olc@@QEAAPEAUPixel@2@XZ
	?GetDrawTarget@PixelGameEngine@olc@@QEBAPEAVSprite@2@XZ
	?GetDrawTargetHeight@PixelGameEngine@olc@@QEBAHXZ
	?GetDrawTargetWidth@PixelGameEngine@olc@@QEBAHXZ
	?GetDroppedFiles@PixelGameEngine@olc@@QEBAAEBV?$vector@V?$basic_string@DU?$char_traits@D@std@@V?$allocator@D@2@@std@@V?$allocator@V?$basic_string@DU?$char_traits@D@std@@V?$allocator@D@2@@std@@@2@@std@@XZ
	?GetDroppedFilesPoint@PixelGameEngine@olc@@QEBAAEBU?$v_2d@H@2@XZ
	?GetElapsedTime@PixelGameEngine@olc@@QEBAMXZ
	?GetFPS@PixelGameEngine@olc@@QEBAIXZ
	?GetFileBuffer@ResourcePack@olc@@QEAA?AUResourceBuffer@2@AEBV?$basic_string@DU?$char_traits@D@std@@V?$allocator@D@2@@std@@@Z
	?GetFontSprite@PixelGameEngine@olc@@QEAAPEAVSprite@2@XZ
	?GetGreen@Color@Gdiplus@@QEBAEXZ
	?GetHeight@Image@Gdiplus@@QEAAIXZ
	?GetKey@PixelGameEngine@olc@@QEBA?AUHWButton@2@W4Key@2@@Z
	?GetKeyPressCache@PixelGameEngine@olc@@QEBAAEBV?$vector@HV?$allocator@H@std@@@std@@XZ
	?GetKeySymbol@PixelGameEngine@olc@@QEBA?BV?$basic_string@DU?$char_traits@D@std@@V?$allocator@D@2@@std@@W4Key@2@_N11@Z
	?GetLastKey@MipsDisplay@@QEBAHXZ
	?GetLastStatus@Image@Gdiplus@@QEBA?AW4Status@2@XZ
	?GetLayers@PixelGameEngine@olc@@QEAAAEAV?$vector@ULayerDesc@olc@@V?$allocator@ULayerDesc@olc@@@std@@@std@@XZ
	?GetMouse@PixelGameEngine@olc@@QEBA?AUHWButton@2@I@Z
	?GetMousePos@PixelGameEngine@olc@@QEBAAEBU?$v_2d@H@2@XZ
	?GetMouseWheel@PixelGameEngine@olc@@QEBAHXZ
	?GetMouseX@PixelGameEngine@olc@@QEBAHXZ
	?GetMouseY@PixelGameEngine@olc@@QEBAHXZ
	?GetPixel@Bitmap@Gdiplus@@QEAA?AW4Status@2@HHPEAVColor@2@@Z
	?GetPixel@Sprite@olc@@QEBA?AUPixel@2@AEBU?$v_2d@H@2@@Z
	?GetPixel@Sprite@olc@@QEBA?AUPixel@2@HH@Z
	?GetPixelMode@PixelGameEngine@olc@@QEAA?AW4Mode@Pixel@2@XZ
	?GetPixelSize@PixelGameEngine@olc@@QEBAAEBU?$v_2d@H@2@XZ
	?GetRed@Color@Gdiplus@@QEBAEXZ
	?GetScreenPixelSize@PixelGameEngine@olc@@QEBAAEBU?$v_2d@H@2@XZ
	?GetScreenSize@PixelGameEngine@olc@@QEBAAEBU?$v_2d@H@2@XZ
	?GetTextSize@PixelGameEngine@olc@@QEAA?AU?$v_2d@H@2@AEBV?$basic_string@DU?$char_traits@D@std@@V?$allocator@D@2@@std@@@Z
	?GetTextSizeProp@PixelGameEngine@olc@@QEAA?AU?$v_2d@H@2@AEBV?$basic_string@DU?$char_traits@D@std@@V?$allocator@D@2@@std@@@Z
	?GetWidth@Image@Gdiplus@@QEAAIXZ
	?GetWindowMouse@PixelGameEngine@olc@@QEBAAEBU?$v_2d@H@2@XZ
	?GetWindowPos@PixelGameEngine@olc@@QEBAAEBU?$v_2d@H@2@XZ
	?GetWindowSize@PixelGameEngine@olc@@QEBAAEBU?$v_2d@H@2@XZ
	?GradientFillRectDecal@PixelGameEngine@olc@@QEAAXAEBU?$v_2d@M@2@0UPixel@2@111@Z
	?GradientTriangleDecal@PixelGameEngine@olc@@QEAAXAEBU?$v_2d@M@2@00UPixel@2@11@Z
	?HW3D_DrawLine@PixelGameEngine@olc@@QEAAXAEBV?$array@M$0BA@@std@@AEBV?$array@M$03@4@1UPixel@2@@Z
	?HW3D_DrawLineBox@PixelGameEngine@olc@@QEAAXAEBV?$array@M$0BA@@std@@AEBV?$array@M$03@4@1UPixel@2@@Z
	?HW3D_DrawObject@PixelGameEngine@olc@@QEAAXAEBV?$array@M$0BA@@std@@PEAVDecal@2@W4DecalStructure@2@AEBV?$vector@V?$array@M$03@std@@V?$allocator@V?$array@M$03@std@@@2@@4@AEBV?$vector@V?$array@M$01@std@@V?$allocator@V?$array@M$01@std@@@2@@4@AEBV?$vector@UPixel@olc@@V?$allocator@UPixel@olc@@@std@@@4@UPixel@2@@Z
	?HW3D_EnableDepthTest@PixelGameEngine@olc@@QEAAX_N@Z
	?HW3D_Projection@PixelGameEngine@olc@@QEAAXAEBV?$array@M$0BA@@std@@@Z
	?HW3D_SetCullMode@PixelGameEngine@olc@@QEAAXW4CullMode@2@@Z
	?HandleSystemEvent@Platform_Windows@olc@@UEAA?AW4rcode@2@XZ
	?IsConsoleShowing@PixelGameEngine@olc@@QEBA_NXZ
	?IsFocused@PixelGameEngine@olc@@QEBA_NXZ
	?IsTextEntryEnabled@PixelGameEngine@olc@@QEBA_NXZ
	?Load@Renderable@olc@@QEAA?AW4rcode@2@AEBV?$basic_string@DU?$char_traits@D@std@@V?$allocator@D@2@@std@@PEAVResourcePack@2@_N2@Z
	?LoadFromFile@Sprite@olc@@QEAA?AW4rcode@2@AEBV?$basic_string@DU?$char_traits@D@std@@V?$allocator@D@2@@std@@PEAVResourcePack@2@@Z
	?LoadImageResource@ImageLoader_GDIPlus@olc@@UEAA?AW4rcode@2@PEAVSprite@2@AEBV?$basic_string@DU?$char_traits@D@std@@V?$allocator@D@2@@std@@PEAVResourcePack@2@@Z
	?LoadPack@ResourcePack@olc@@QEAA_NAEBV?$basic_string@DU?$char_traits@D@std@@V?$allocator@D@2@@std@@0@Z
	?Loaded@ResourcePack@olc@@QEAA_NXZ
	?OnAfterUserCreate@PGEX@olc@@MEAAXXZ
	?OnAfterUserUpdate@PGEX@olc@@MEAAXM@Z
	?OnBeforeUserCreate@PGEX@olc@@MEAAXXZ
	?OnBeforeUserUpdate@PGEX@olc@@MEAA_NAEAM@Z
	?OnConsoleCommand@PixelGameEngine@olc@@UEAA_NAEBV?$basic_string@DU?$char_traits@D@std@@V?$allocator@D@2@@std@@@Z
	?OnTextEntryComplete@PixelGameEngine@olc@@UEAAXAEBV?$basic_string@DU?$char_traits@D@std@@V?$allocator@D@2@@std@@@Z
	?OnUserCreate@MipsDisplay@@UEAA_NXZ
	?OnUserCreate@PixelGameEngine@olc@@UEAA_NXZ
	?OnUserDestroy@MipsDisplay@@UEAA_NXZ
	?OnUserDestroy@PixelGameEngine@olc@@UEAA_NXZ
	?OnUserUpdate@MipsDisplay@@UEAA_NM@Z
	?OnUserUpdate@PixelGameEngine@olc@@UEAA_NM@Z
	?Patch@Decal@olc@@QEAA?AUDecalPatch@2@AEBU?$v_2d@H@2@0@Z
	?Patch@Decal@olc@@QEAA?AUDecalPatch@2@AEBU?$v_2d@M@2@000@Z
	?Patch@Sprite@olc@@QEAA?AUSpritePatch@2@AEBU?$v_2d@H@2@0@Z
	?Patch@Sprite@olc@@QEAA?AUSpritePatch@2@AEBU?$v_2d@M@2@000@Z
	?PixelF@olc@@YA?AUPixel@1@MMMM@Z
	?PixelLerp@olc@@YA?AUPixel@1@AEBU21@0M@Z
	?PrepareDevice@Renderer_OGL10@olc@@UEAAXXZ
	?PrepareDrawing@Renderer_OGL10@olc@@UEAAXXZ
	?ReadTexture@Renderer_OGL10@olc@@UEAAXIPEAVSprite@2@@Z
	?RefreshWindow@MipsDisplay@@QEAAXXZ
	?RunEngine@MipsDisplay@@QEAAXXZ
	?Sample@Sprite@olc@@QEBA?AUPixel@2@AEBU?$v_2d@M@2@@Z
	?Sample@Sprite@olc@@QEBA?AUPixel@2@MM@Z
	?SampleBL@Sprite@olc@@QEBA?AUPixel@2@AEBU?$v_2d@M@2@@Z
	?SampleBL@Sprite@olc@@QEBA?AUPixel@2@MM@Z
	?SaveImageResource@ImageLoader_GDIPlus@olc@@UEAA?AW4rcode@2@PEAVSprite@2@AEBV?$basic_string@DU?$char_traits@D@std@@V?$allocator@D@2@@std@@@Z
	?SavePack@ResourcePack@olc@@QEAA_NAEBV?$basic_string@DU?$char_traits@D@std@@V?$allocator@D@2@@std@@0@Z
	?ScreenHeight@PixelGameEngine@olc@@QEBAHXZ
	?ScreenWidth@PixelGameEngine@olc@@QEBAHXZ
	?Set3DProjection@Renderer_OGL10@olc@@UEAAXAEBV?$array@M$0BA@@std@@@Z
	?SetDecalMode@PixelGameEngine@olc@@QEAAXAEBW4DecalMode@2@@Z
	?SetDecalMode@Renderer_OGL10@olc@@UEAAXAEBW4DecalMode@2@@Z
	?SetDecalStructure@PixelGameEngine@olc@@QEAAXAEBW4DecalStructure@2@@Z
	?SetDrawTarget@PixelGameEngine@olc@@QEAAXE_N@Z
	?SetDrawTarget@PixelGameEngine@olc@@QEAAXPEAVSprite@2@@Z
	?SetLayerCustomRenderFunction@PixelGameEngine@olc@@QEAAXEV?$function@$$A6AXXZ@std@@@Z
	?SetLayerOffset@PixelGameEngine@olc@@QEAAXEAEBU?$v_2d@M@2@@Z
	?SetLayerOffset@PixelGameEngine@olc@@QEAAXEMM@Z
	?SetLayerScale@PixelGameEngine@olc@@QEAAXEAEBU?$v_2d@M@2@@Z
	?SetLayerScale@PixelGameEngine@olc@@QEAAXEMM@Z
	?SetLayerTint@PixelGameEngine@olc@@QEAAXEAEBUPixel@2@@Z
	?SetNativeImage@Image@Gdiplus@@IEAAXPEAVGpImage@2@@Z
	?SetPixel@MipsDisplay@@QEAAXHHI@Z
	?SetPixel@Sprite@olc@@QEAA_NAEBU?$v_2d@H@2@UPixel@2@@Z
	?SetPixel@Sprite@olc@@QEAA_NHHUPixel@2@@Z
	?SetPixelBlend@PixelGameEngine@olc@@QEAAXM@Z
	?SetPixelMode@PixelGameEngine@olc@@QEAAXV?$function@$$A6A?AUPixel@olc@@HHAEBU12@0@Z@std@@@Z
	?SetPixelMode@PixelGameEngine@olc@@QEAAXW4Mode@Pixel@2@@Z
	?SetSampleMode@Sprite@olc@@QEAAXW4Mode@12@@Z
	?SetScreenSize@PixelGameEngine@olc@@QEAAXHH@Z
	?SetSize@Sprite@olc@@QEAAXHH@Z
	?SetStatus@Image@Gdiplus@@IEBA?AW4Status@2@W432@@Z
	?SetValue@Color@Gdiplus@@QEAAXK@Z
	?SetWindowSize@PixelGameEngine@olc@@QEAA?AW4rcode@2@AEBU?$v_2d@H@2@0@Z
	?SetWindowSize@Platform_Windows@olc@@UEAA?AW4rcode@2@AEBU?$v_2d@H@2@0@Z
	?SetWindowTitle@Platform_Windows@olc@@UEAA?AW4rcode@2@AEBV?$basic_string@DU?$char_traits@D@std@@V?$allocator@D@2@@std@@@Z
	?ShowWindowFrame@PixelGameEngine@olc@@QEAA?AW4rcode@2@_N@Z
	?ShowWindowFrame@Platform_Windows@olc@@UEAA?AW4rcode@2@_N@Z
	?Size@Sprite@olc@@QEBA?AU?$v_2d@H@2@XZ
	?Sleep@MipsDisplay@@QEAAXH@Z
	?Sprite@Renderable@olc@@QEBAPEAV02@XZ
	?Start@PixelGameEngine@olc@@QEAA?AW4rcode@2@XZ
	?StartSystemEventLoop@Platform_Windows@olc@@UEAA?AW4rcode@2@XZ
	?StopEngine@MipsDisplay@@QEAAXXZ
	?TextEntryEnable@PixelGameEngine@olc@@QEAAX_NAEBV?$basic_string@DU?$char_traits@D@std@@V?$allocator@D@2@@std@@@Z
	?TextEntryGetCursor@PixelGameEngine@olc@@QEBAHXZ
	?TextEntryGetString@PixelGameEngine@olc@@QEBA?AV?$basic_string@DU?$char_traits@D@std@@V?$allocator@D@2@@std@@XZ
	?ThreadCleanUp@Platform_Windows@olc@@UEAA?AW4rcode@2@XZ
	?ThreadStartUp@Platform_Windows@olc@@UEAA?AW4rcode@2@XZ
	?Update@Decal@olc@@QEAAXXZ
	?UpdateConsole@PixelGameEngine@olc@@AEAAXXZ
	?UpdateSprite@Decal@olc@@QEAAXXZ
	?UpdateTextEntry@PixelGameEngine@olc@@AEAAXXZ
	?UpdateTexture@Renderer_OGL10@olc@@UEAAXIPEAVSprite@2@@Z
	?UpdateViewport@Renderer_OGL10@olc@@UEAAXAEBU?$v_2d@H@2@0@Z
	?_Activate_SSO_buffer@?$_String_val@U?$_Simple_types@D@std@@@std@@QEAAXXZ
	?_Activate_SSO_buffer@?$_String_val@U?$_Simple_types@_W@std@@@std@@QEAAXXZ
	?_Adjust_manually_vector_aligned@std@@YAXAEAPEAXAEA_K@Z
	?_Adopt@_Iterator_base0@std@@QEAAXPEBX@Z
	?_Adopt@_Iterator_base12@std@@QEAAXPEBU_Container_base12@2@@Z
	?_Adopt_locked@_Iterator_base12@std@@AEAAXPEBU_Container_base12@2@@Z
	?_Adopt_unlocked@_Iterator_base12@std@@AEAAXPEBU_Container_base12@2@@Z
	?_Alloc_sentinel_and_proxy@?$_Tree@V?$_Tmap_traits@V?$basic_string@DU?$char_traits@D@std@@V?$allocator@D@2@@std@@UsResourceFile@ResourcePack@olc@@U?$less@V?$basic_string@DU?$char_traits@D@std@@V?$allocator@D@2@@std@@@2@V?$allocator@U?$pair@$$CBV?$basic_string@DU?$char_traits@D@std@@V?$allocator@D@2@@std@@UsResourceFile@ResourcePack@olc@@@std@@@2@$0A@@std@@@std@@IEAAXXZ
	?_Alloc_sentinel_and_proxy@?$_Tree@V?$_Tmap_traits@_KW4Key@olc@@U?$less@_K@std@@V?$allocator@U?$pair@$$CB_KW4Key@olc@@@std@@@4@$0A@@std@@@std@@IEAAXXZ
	?_Alloc_sentinel_and_proxy@?$list@U?$pair@$$CBW4Key@olc@@V?$tuple@V?$basic_string@DU?$char_traits@D@std@@V?$allocator@D@2@@std@@V12@V12@V12@@std@@@std@@V?$allocator@U?$pair@$$CBW4Key@olc@@V?$tuple@V?$basic_string@DU?$char_traits@D@std@@V?$allocator@D@2@@std@@V12@V12@V12@@std@@@std@@@2@@std@@AEAAXXZ
	?_Alloc_sentinel_and_proxy@?$list@V?$basic_string@DU?$char_traits@D@std@@V?$allocator@D@2@@std@@V?$allocator@V?$basic_string@DU?$char_traits@D@std@@V?$allocator@D@2@@std@@@2@@std@@AEAAXXZ
	?_Allocate@?$_Alloc_construct_ptr@V?$allocator@U?$_List_node@U?$pair@$$CBW4Key@olc@@V?$tuple@V?$basic_string@DU?$char_traits@D@std@@V?$allocator@D@2@@std@@V12@V12@V12@@std@@@std@@PEAX@std@@@std@@@std@@QEAAXXZ
	?_Allocate@?$_Alloc_construct_ptr@V?$allocator@U?$_List_node@V?$basic_string@DU?$char_traits@D@std@@V?$allocator@D@2@@std@@PEAX@std@@@std@@@std@@QEAAXXZ
	?_Allocate@?$_Alloc_construct_ptr@V?$allocator@U?$_Tree_node@U?$pair@$$CBV?$basic_string@DU?$char_traits@D@std@@V?$allocator@D@2@@std@@UsResourceFile@ResourcePack@olc@@@std@@PEAX@std@@@std@@@std@@QEAAXXZ
	?_Allocate@?$_Alloc_construct_ptr@V?$allocator@U?$_Tree_node@U?$pair@$$CB_KW4Key@olc@@@std@@PEAX@std@@@std@@@std@@QEAAXXZ
	?_Allocate@_Default_allocate_traits@std@@SAPEAX_K@Z
	?_Assign_grow@?$_Hash_vec@V?$allocator@V?$_List_unchecked_iterator@V?$_List_val@U?$_List_simple_types@U?$pair@$$CBW4Key@olc@@V?$tuple@V?$basic_string@DU?$char_traits@D@std@@V?$allocator@D@2@@std@@V12@V12@V12@@std@@@std@@@std@@@std@@@std@@@std@@@std@@QEAAX_KV?$_List_unchecked_iterator@V?$_List_val@U?$_List_simple_types@U?$pair@$$CBW4Key@olc@@V?$tuple@V?$basic_string@DU?$char_traits@D@std@@V?$allocator@D@2@@std@@V12@V12@V12@@std@@@std@@@std@@@std@@@2@@Z
	?_Assign_locked@_Iterator_base12@std@@AEAAXAEBU12@@Z
	?_Assign_unlocked@_Iterator_base12@std@@AEAAXAEBU12@@Z
	?_Become_small@?$basic_string@DU?$char_traits@D@std@@V?$allocator@D@2@@std@@AEAAXXZ
	?_Bump_erased@_Range_eraser@?$_Hash@V?$_Umap_traits@W4Key@olc@@V?$tuple@V?$basic_string@DU?$char_traits@D@std@@V?$allocator@D@2@@std@@V12@V12@V12@@std@@V?$_Uhash_compare@W4Key@olc@@U?$hash@W4Key@olc@@@std@@U?$equal_to@W4Key@olc@@@4@@4@V?$allocator@U?$pair@$$CBW4Key@olc@@V?$tuple@V?$basic_string@DU?$char_traits@D@std@@V?$allocator@D@2@@std@@V12@V12@V12@@std@@@std@@@4@$0A@@std@@@std@@QEAAXXZ
	?_Buy_nonzero@?$vector@DV?$allocator@D@std@@@std@@AEAAX_K@Z
	?_Buy_nonzero@?$vector@EV?$allocator@E@std@@@std@@AEAAX_K@Z
	?_Buy_nonzero@?$vector@MV?$allocator@M@std@@@std@@AEAAX_K@Z
	?_Buy_nonzero@?$vector@PEAXV?$allocator@PEAX@std@@@std@@AEAAX_K@Z
	?_Buy_nonzero@?$vector@U?$v_2d@M@olc@@V?$allocator@U?$v_2d@M@olc@@@std@@@std@@AEAAX_K@Z
	?_Buy_nonzero@?$vector@UPixel@olc@@V?$allocator@UPixel@olc@@@std@@@std@@AEAAX_K@Z
	?_Buy_nonzero@?$vector@UVertex@GPUTask@olc@@V?$allocator@UVertex@GPUTask@olc@@@std@@@std@@AEAAX_K@Z
	?_Buy_raw@?$vector@DV?$allocator@D@std@@@std@@AEAAX_K@Z
	?_Buy_raw@?$vector@EV?$allocator@E@std@@@std@@AEAAX_K@Z
	?_Buy_raw@?$vector@MV?$allocator@M@std@@@std@@AEAAX_K@Z
	?_Buy_raw@?$vector@PEAXV?$allocator@PEAX@std@@@std@@AEAAX_K@Z
	?_Buy_raw@?$vector@U?$v_2d@M@olc@@V?$allocator@U?$v_2d@M@olc@@@std@@@std@@AEAAX_K@Z
	?_Buy_raw@?$vector@UPixel@olc@@V?$allocator@UPixel@olc@@@std@@@std@@AEAAX_K@Z
	?_Buy_raw@?$vector@UVertex@GPUTask@olc@@V?$allocator@UVertex@GPUTask@olc@@@std@@@std@@AEAAX_K@Z
	?_Buy_raw@?$vector@V?$basic_string@DU?$char_traits@D@std@@V?$allocator@D@2@@std@@V?$allocator@V?$basic_string@DU?$char_traits@D@std@@V?$allocator@D@2@@std@@@2@@std@@AEAAX_K@Z
	?_Calculate_growth@?$basic_string@DU?$char_traits@D@std@@V?$allocator@D@2@@std@@AEBA_K_K@Z
	?_Calculate_growth@?$basic_string@DU?$char_traits@D@std@@V?$allocator@D@2@@std@@CA_K_K00@Z
	?_Calculate_growth@?$basic_string@_WU?$char_traits@_W@std@@V?$allocator@_W@2@@std@@AEBA_K_K@Z
	?_Calculate_growth@?$basic_string@_WU?$char_traits@_W@std@@V?$allocator@_W@2@@std@@CA_K_K00@Z
	?_Calculate_growth@?$vector@DV?$allocator@D@std@@@std@@AEBA_K_K@Z
	?_Calculate_growth@?$vector@HV?$allocator@H@std@@@std@@AEBA_K_K@Z
	?_Calculate_growth@?$vector@MV?$allocator@M@std@@@std@@AEBA_K_K@Z
	?_Calculate_growth@?$vector@PEAVPGEX@olc@@V?$allocator@PEAVPGEX@olc@@@std@@@std@@AEBA_K_K@Z
	?_Calculate_growth@?$vector@U?$v_2d@H@olc@@V?$allocator@U?$v_2d@H@olc@@@std@@@std@@AEBA_K_K@Z
	?_Calculate_growth@?$vector@U?$v_2d@M@olc@@V?$allocator@U?$v_2d@M@olc@@@std@@@std@@AEBA_K_K@Z
	?_Calculate_growth@?$vector@UDecalInstance@olc@@V?$allocator@UDecalInstance@olc@@@std@@@std@@AEBA_K_K@Z
	?_Calculate_growth@?$vector@UGPUTask@olc@@V?$allocator@UGPUTask@olc@@@std@@@std@@AEBA_K_K@Z
	?_Calculate_growth@?$vector@ULayerDesc@olc@@V?$allocator@ULayerDesc@olc@@@std@@@std@@AEBA_K_K@Z
	?_Calculate_growth@?$vector@UPixel@olc@@V?$allocator@UPixel@olc@@@std@@@std@@AEBA_K_K@Z
	?_Calculate_growth@?$vector@UVertex@GPUTask@olc@@V?$allocator@UVertex@GPUTask@olc@@@std@@@std@@AEBA_K_K@Z
	?_Calculate_growth@?$vector@V?$basic_string@DU?$char_traits@D@std@@V?$allocator@D@2@@std@@V?$allocator@V?$basic_string@DU?$char_traits@D@std@@V?$allocator@D@2@@std@@@2@@std@@AEBA_K_K@Z
	?_Ceiling_of_log_2@std@@YAK_K@Z
	?_Change_array@?$vector@DV?$allocator@D@std@@@std@@AEAAXQEAD_K1@Z
	?_Change_array@?$vector@HV?$allocator@H@std@@@std@@AEAAXQEAH_K1@Z
	?_Change_array@?$vector@MV?$allocator@M@std@@@std@@AEAAXQEAM_K1@Z
	?_Change_array@?$vector@PEAVPGEX@olc@@V?$allocator@PEAVPGEX@olc@@@std@@@std@@AEAAXQEAPEAVPGEX@olc@@_K1@Z
	?_Change_array@?$vector@U?$v_2d@H@olc@@V?$allocator@U?$v_2d@H@olc@@@std@@@std@@AEAAXQEAU?$v_2d@H@olc@@_K1@Z
	?_Change_array@?$vector@U?$v_2d@M@olc@@V?$allocator@U?$v_2d@M@olc@@@std@@@std@@AEAAXQEAU?$v_2d@M@olc@@_K1@Z
	?_Change_array@?$vector@UDecalInstance@olc@@V?$allocator@UDecalInstance@olc@@@std@@@std@@AEAAXQEAUDecalInstance@olc@@_K1@Z
	?_Change_array@?$vector@UGPUTask@olc@@V?$allocator@UGPUTask@olc@@@std@@@std@@AEAAXQEAUGPUTask@olc@@_K1@Z
	?_Change_array@?$vector@ULayerDesc@olc@@V?$allocator@ULayerDesc@olc@@@std@@@std@@AEAAXQEAULayerDesc@olc@@_K1@Z
	?_Change_array@?$vector@UPixel@olc@@V?$allocator@UPixel@olc@@@std@@@std@@AEAAXQEAUPixel@olc@@_K1@Z
	?_Change_array@?$vector@UVertex@GPUTask@olc@@V?$allocator@UVertex@GPUTask@olc@@@std@@@std@@AEAAXQEAUVertex@GPUTask@olc@@_K1@Z
	?_Change_array@?$vector@V?$basic_string@DU?$char_traits@D@std@@V?$allocator@D@2@@std@@V?$allocator@V?$basic_string@DU?$char_traits@D@std@@V?$allocator@D@2@@std@@@2@@std@@AEAAXQEAV?$basic_string@DU?$char_traits@D@std@@V?$allocator@D@2@@2@_K1@Z
	?_Check_convert_result@std@@YAHU__std_fs_convert_result@@@Z
	?_Check_grow_by_1@?$_Tree@V?$_Tmap_traits@V?$basic_string@DU?$char_traits@D@std@@V?$allocator@D@2@@std@@UsResourceFile@ResourcePack@olc@@U?$less@V?$basic_string@DU?$char_traits@D@std@@V?$allocator@D@2@@std@@@2@V?$allocator@U?$pair@$$CBV?$basic_string@DU?$char_traits@D@std@@V?$allocator@D@2@@std@@UsResourceFile@ResourcePack@olc@@@std@@@2@$0A@@std@@@std@@IEAAXXZ
	?_Check_grow_by_1@?$_Tree@V?$_Tmap_traits@_KW4Key@olc@@U?$less@_K@std@@V?$allocator@U?$pair@$$CB_KW4Key@olc@@@std@@@4@$0A@@std@@@std@@IEAAXXZ
	?_Check_load_memory_order@std@@YAXW4memory_order@1@@Z
	?_Check_max_size@?$_Hash@V?$_Umap_traits@W4Key@olc@@V?$tuple@V?$basic_string@DU?$char_traits@D@std@@V?$allocator@D@2@@std@@V12@V12@V12@@std@@V?$_Uhash_compare@W4Key@olc@@U?$hash@W4Key@olc@@@std@@U?$equal_to@W4Key@olc@@@4@@4@V?$allocator@U?$pair@$$CBW4Key@olc@@V?$tuple@V?$basic_string@DU?$char_traits@D@std@@V?$allocator@D@2@@std@@V12@V12@V12@@std@@@std@@@4@$0A@@std@@@std@@IEBAXXZ
	?_Check_offset@?$_String_val@U?$_Simple_types@D@std@@@std@@QEBAX_K@Z
	?_Check_rehash_required_1@?$_Hash@V?$_Umap_traits@W4Key@olc@@V?$tuple@V?$basic_string@DU?$char_traits@D@std@@V?$allocator@D@2@@std@@V12@V12@V12@@std@@V?$_Uhash_compare@W4Key@olc@@U?$hash@W4Key@olc@@@std@@U?$equal_to@W4Key@olc@@@4@@4@V?$allocator@U?$pair@$$CBW4Key@olc@@V?$tuple@V?$basic_string@DU?$char_traits@D@std@@V?$allocator@D@2@@std@@V12@V12@V12@@std@@@std@@@4@$0A@@std@@@std@@IEBA_NXZ
	?_Clamp_suffix_size@?$_String_val@U?$_Simple_types@D@std@@@std@@QEBA_K_K0@Z
	?_Clear_and_reserve_geometric@?$vector@MV?$allocator@M@std@@@std@@AEAAX_K@Z
	?_Clear_and_reserve_geometric@?$vector@U?$v_2d@M@olc@@V?$allocator@U?$v_2d@M@olc@@@std@@@std@@AEAAX_K@Z
	?_Clear_and_reserve_geometric@?$vector@UPixel@olc@@V?$allocator@UPixel@olc@@@std@@@std@@AEAAX_K@Z
	?_Clear_and_reserve_geometric@?$vector@UVertex@GPUTask@olc@@V?$allocator@UVertex@GPUTask@olc@@@std@@@std@@AEAAX_K@Z
	?_Clear_and_reserve_geometric@?$vector@V?$basic_string@DU?$char_traits@D@std@@V?$allocator@D@2@@std@@V?$allocator@V?$basic_string@DU?$char_traits@D@std@@V?$allocator@D@2@@std@@@2@@std@@AEAAX_K@Z
	?_Compat@?$_Array_const_iterator@U?$v_2d@M@olc@@$03@std@@QEBAXAEBV12@@Z
	?_Compat@?$_Vector_const_iterator@V?$_Vector_val@U?$_Simple_types@PEAVPGEX@olc@@@std@@@std@@@std@@QEBAXAEBV12@@Z
	?_Compat@?$_Vector_const_iterator@V?$_Vector_val@U?$_Simple_types@ULayerDesc@olc@@@std@@@std@@@std@@QEBAXAEBV12@@Z
	?_Construct_empty@?$basic_string@DU?$char_traits@D@std@@V?$allocator@D@2@@std@@AEAAXXZ
	?_Construct_empty@?$basic_string@_WU?$char_traits@_W@std@@V?$allocator@_W@2@@std@@AEAAXXZ
	?_Convert_narrow_to_wide@filesystem@std@@YA?AV?$basic_string@_WU?$char_traits@_W@std@@V?$allocator@_W@2@@2@W4__std_code_page@@V?$basic_string_view@DU?$char_traits@D@std@@@2@@Z
	?_Deallocate_for_capacity@?$basic_string@DU?$char_traits@D@std@@V?$allocator@D@2@@std@@CAXAEAV?$allocator@D@2@QEAD_K@Z
	?_Deallocate_for_capacity@?$basic_string@_WU?$char_traits@_W@std@@V?$allocator@_W@2@@std@@CAXAEAV?$allocator@_W@2@QEA_W_K@Z
	?_Desired_grow_bucket_count@?$_Hash@V?$_Umap_traits@W4Key@olc@@V?$tuple@V?$basic_string@DU?$char_traits@D@std@@V?$allocator@D@2@@std@@V12@V12@V12@@std@@V?$_Uhash_compare@W4Key@olc@@U?$hash@W4Key@olc@@@std@@U?$equal_to@W4Key@olc@@@4@@4@V?$allocator@U?$pair@$$CBW4Key@olc@@V?$tuple@V?$basic_string@DU?$char_traits@D@std@@V?$allocator@D@2@@std@@V12@V12@V12@@std@@@std@@@4@$0A@@std@@@std@@IEBA_K_K@Z
	?_Do_hash@?$hash@W4Key@olc@@@std@@SA_KAEBW4Key@olc@@@Z
	?_Empty@?$_Func_class@UPixel@olc@@HHAEBU12@AEBU12@@std@@IEBA_NXZ
	?_Empty@?$_Func_class@X$$V@std@@IEBA_NXZ
	?_Endwrite@?$basic_filebuf@DU?$char_traits@D@std@@@std@@IEAA_NXZ
	?_Eos@?$basic_string@DU?$char_traits@D@std@@V?$allocator@D@2@@std@@AEAAX_K@Z
	?_Eos@?$basic_string@_WU?$char_traits@_W@std@@V?$allocator@_W@2@@std@@AEAAX_K@Z
	?_Equal@?$basic_string@DU?$char_traits@D@std@@V?$allocator@D@2@@std@@QEBA_NQEBD@Z
	?_Erase_noexcept@?$basic_string@DU?$char_traits@D@std@@V?$allocator@D@2@@std@@AEAAAEAV12@_K_K@Z
	?_Extract@?$_In_place_key_extract_map_impl@W4Key@olc@@U?$pair@$$CBW4Key@olc@@V?$tuple@V?$basic_string@DU?$char_traits@D@std@@V?$allocator@D@2@@std@@V12@V12@V12@@std@@@std@@@std@@SAAEBW4Key@olc@@AEBU?$pair@$$CBW4Key@olc@@V?$tuple@V?$basic_string@DU?$char_traits@D@std@@V?$allocator@D@2@@std@@V12@V12@V12@@std@@@2@@Z
	?_File_size@filesystem@std@@YA?AW4__std_win_error@@AEBVpath@12@AEA_K@Z
	?_Floor_of_log_2@std@@YAK_K@Z
	?_Fnv1a_append_bytes@std@@YA_K_KQEBE_K@Z
	?_Forced_rehash@?$_Hash@V?$_Umap_traits@W4Key@olc@@V?$tuple@V?$basic_string@DU?$char_traits@D@std@@V?$allocator@D@2@@std@@V12@V12@V12@@std@@V?$_Uhash_compare@W4Key@olc@@U?$hash@W4Key@olc@@@std@@U?$equal_to@W4Key@olc@@@4@@4@V?$allocator@U?$pair@$$CBW4Key@olc@@V?$tuple@V?$basic_string@DU?$char_traits@D@std@@V?$allocator@D@2@@std@@V12@V12@V12@@std@@@std@@@4@$0A@@std@@@std@@IEAAX_K@Z
	?_Get_any_status@filesystem@std@@YA?AU_File_status_and_error@12@AEBVpath@12@W4__std_fs_stats_flags@@@Z
	?_Get_current@?$reverse_iterator@V?$_Vector_iterator@V?$_Vector_val@U?$_Simple_types@ULayerDesc@olc@@@std@@@std@@@std@@@std@@QEBAAEBV?$_Vector_iterator@V?$_Vector_val@U?$_Simple_types@ULayerDesc@olc@@@std@@@std@@@2@XZ
	?_Get_first@?$_Compressed_pair@U?$default_delete@V?$tuple@P8PixelGameEngine@olc@@EAAXXZPEAV12@@std@@@std@@PEAV?$tuple@P8PixelGameEngine@olc@@EAAXXZPEAV12@@2@$00@std@@QEAAAEAU?$default_delete@V?$tuple@P8PixelGameEngine@olc@@EAAXXZPEAV12@@std@@@2@XZ
	?_Get_first@?$_Compressed_pair@U?$default_delete@VDecal@olc@@@std@@PEAVDecal@olc@@$00@std@@QEAAAEAU?$default_delete@VDecal@olc@@@2@XZ
	?_Get_first@?$_Compressed_pair@U?$default_delete@VImageLoader@olc@@@std@@PEAVImageLoader@olc@@$00@std@@QEAAAEAU?$default_delete@VImageLoader@olc@@@2@XZ
	?_Get_first@?$_Compressed_pair@U?$default_delete@VImageLoader_GDIPlus@olc@@@std@@PEAVImageLoader_GDIPlus@olc@@$00@std@@QEAAAEAU?$default_delete@VImageLoader_GDIPlus@olc@@@2@XZ
	?_Get_first@?$_Compressed_pair@U?$default_delete@VMipsDisplay@@@std@@PEAVMipsDisplay@@$00@std@@QEAAAEAU?$default_delete@VMipsDisplay@@@2@XZ
	?_Get_first@?$_Compressed_pair@U?$default_delete@VPlatform@olc@@@std@@PEAVPlatform@olc@@$00@std@@QEAAAEAU?$default_delete@VPlatform@olc@@@2@XZ
	?_Get_first@?$_Compressed_pair@U?$default_delete@VPlatform_Windows@olc@@@std@@PEAVPlatform_Windows@olc@@$00@std@@QEAAAEAU?$default_delete@VPlatform_Windows@olc@@@2@XZ
	?_Get_first@?$_Compressed_pair@U?$default_delete@VRenderer@olc@@@std@@PEAVRenderer@olc@@$00@std@@QEAAAEAU?$default_delete@VRenderer@olc@@@2@XZ
	?_Get_first@?$_Compressed_pair@U?$default_delete@VRenderer_OGL10@olc@@@std@@PEAVRenderer_OGL10@olc@@$00@std@@QEAAAEAU?$default_delete@VRenderer_OGL10@olc@@@2@XZ
	?_Get_first@?$_Compressed_pair@U?$default_delete@VSprite@olc@@@std@@PEAVSprite@olc@@$00@std@@QEAAAEAU?$default_delete@VSprite@olc@@@2@XZ
	?_Get_first@?$_Compressed_pair@U?$default_delete@V_Facet_base@std@@@std@@PEAV_Facet_base@2@$00@std@@QEAAAEAU?$default_delete@V_Facet_base@std@@@2@XZ
	?_Get_first@?$_Compressed_pair@U?$equal_to@W4Key@olc@@@std@@M$00@std@@QEBAAEBU?$equal_to@W4Key@olc@@@2@XZ
	?_Get_first@?$_Compressed_pair@U?$hash@W4Key@olc@@@std@@V?$_Compressed_pair@U?$equal_to@W4Key@olc@@@std@@M$00@2@$00@std@@QEBAAEBU?$hash@W4Key@olc@@@2@XZ
	?_Get_first@?$_Compressed_pair@U?$less@V?$basic_string@DU?$char_traits@D@std@@V?$allocator@D@2@@std@@@std@@V?$_Compressed_pair@V?$allocator@U?$_Tree_node@U?$pair@$$CBV?$basic_string@DU?$char_traits@D@std@@V?$allocator@D@2@@std@@UsResourceFile@ResourcePack@olc@@@std@@PEAX@std@@@std@@V?$_Tree_val@U?$_Tree_simple_types@U?$pair@$$CBV?$basic_string@DU?$char_traits@D@std@@V?$allocator@D@2@@std@@UsResourceFile@ResourcePack@olc@@@std@@@std@@@2@$00@2@$00@std@@QEBAAEBU?$less@V?$basic_string@DU?$char_traits@D@std@@V?$allocator@D@2@@std@@@2@XZ
	?_Get_first@?$_Compressed_pair@U?$less@_K@std@@V?$_Compressed_pair@V?$allocator@U?$_Tree_node@U?$pair@$$CB_KW4Key@olc@@@std@@PEAX@std@@@std@@V?$_Tree_val@U?$_Tree_simple_types@U?$pair@$$CB_KW4Key@olc@@@std@@@std@@@2@$00@2@$00@std@@QEBAAEBU?$less@_K@2@XZ
	?_Get_first@?$_Compressed_pair@V?$allocator@D@std@@V?$_String_val@U?$_Simple_types@D@std@@@2@$00@std@@QEAAAEAV?$allocator@D@2@XZ
	?_Get_first@?$_Compressed_pair@V?$allocator@D@std@@V?$_String_val@U?$_Simple_types@D@std@@@2@$00@std@@QEBAAEBV?$allocator@D@2@XZ
	?_Get_first@?$_Compressed_pair@V?$allocator@D@std@@V?$_Vector_val@U?$_Simple_types@D@std@@@2@$00@std@@QEAAAEAV?$allocator@D@2@XZ
	?_Get_first@?$_Compressed_pair@V?$allocator@D@std@@V?$_Vector_val@U?$_Simple_types@D@std@@@2@$00@std@@QEBAAEBV?$allocator@D@2@XZ
	?_Get_first@?$_Compressed_pair@V?$allocator@E@std@@V?$_Vector_val@U?$_Simple_types@E@std@@@2@$00@std@@QEAAAEAV?$allocator@E@2@XZ
	?_Get_first@?$_Compressed_pair@V?$allocator@E@std@@V?$_Vector_val@U?$_Simple_types@E@std@@@2@$00@std@@QEBAAEBV?$allocator@E@2@XZ
	?_Get_first@?$_Compressed_pair@V?$allocator@H@std@@V?$_Vector_val@U?$_Simple_types@H@std@@@2@$00@std@@QEAAAEAV?$allocator@H@2@XZ
	?_Get_first@?$_Compressed_pair@V?$allocator@H@std@@V?$_Vector_val@U?$_Simple_types@H@std@@@2@$00@std@@QEBAAEBV?$allocator@H@2@XZ
	?_Get_first@?$_Compressed_pair@V?$allocator@M@std@@V?$_Vector_val@U?$_Simple_types@M@std@@@2@$00@std@@QEAAAEAV?$allocator@M@2@XZ
	?_Get_first@?$_Compressed_pair@V?$allocator@M@std@@V?$_Vector_val@U?$_Simple_types@M@std@@@2@$00@std@@QEBAAEBV?$allocator@M@2@XZ
	?_Get_first@?$_Compressed_pair@V?$allocator@PEAVPGEX@olc@@@std@@V?$_Vector_val@U?$_Simple_types@PEAVPGEX@olc@@@std@@@2@$00@std@@QEAAAEAV?$allocator@PEAVPGEX@olc@@@2@XZ
	?_Get_first@?$_Compressed_pair@V?$allocator@PEAVPGEX@olc@@@std@@V?$_Vector_val@U?$_Simple_types@PEAVPGEX@olc@@@std@@@2@$00@std@@QEBAAEBV?$allocator@PEAVPGEX@olc@@@2@XZ
	?_Get_first@?$_Compressed_pair@V?$allocator@PEAX@std@@V?$_Vector_val@U?$_Simple_types@PEAX@std@@@2@$00@std@@QEAAAEAV?$allocator@PEAX@2@XZ
	?_Get_first@?$_Compressed_pair@V?$allocator@PEAX@std@@V?$_Vector_val@U?$_Simple_types@PEAX@std@@@2@$00@std@@QEBAAEBV?$allocator@PEAX@2@XZ
	?_Get_first@?$_Compressed_pair@V?$allocator@U?$_List_node@U?$pair@$$CBW4Key@olc@@V?$tuple@V?$basic_string@DU?$char_traits@D@std@@V?$allocator@D@2@@std@@V12@V12@V12@@std@@@std@@PEAX@std@@@std@@V?$_List_val@U?$_List_simple_types@U?$pair@$$CBW4Key@olc@@V?$tuple@V?$basic_string@DU?$char_traits@D@std@@V?$allocator@D@2@@std@@V12@V12@V12@@std@@@std@@@std@@@2@$00@std@@QEAAAEAV?$allocator@U?$_List_node@U?$pair@$$CBW4Key@olc@@V?$tuple@V?$basic_string@DU?$char_traits@D@std@@V?$allocator@D@2@@std@@V12@V12@V12@@std@@@std@@PEAX@std@@@2@XZ
	?_Get_first@?$_Compressed_pair@V?$allocator@U?$_List_node@U?$pair@$$CBW4Key@olc@@V?$tuple@V?$basic_string@DU?$char_traits@D@std@@V?$allocator@D@2@@std@@V12@V12@V12@@std@@@std@@PEAX@std@@@std@@V?$_List_val@U?$_List_simple_types@U?$pair@$$CBW4Key@olc@@V?$tuple@V?$basic_string@DU?$char_traits@D@std@@V?$allocator@D@2@@std@@V12@V12@V12@@std@@@std@@@std@@@2@$00@std@@QEBAAEBV?$allocator@U?$_List_node@U?$pair@$$CBW4Key@olc@@V?$tuple@V?$basic_string@DU?$char_traits@D@std@@V?$allocator@D@2@@std@@V12@V12@V12@@std@@@std@@PEAX@std@@@2@XZ
	?_Get_first@?$_Compressed_pair@V?$allocator@U?$_List_node@V?$basic_string@DU?$char_traits@D@std@@V?$allocator@D@2@@std@@PEAX@std@@@std@@V?$_List_val@U?$_List_simple_types@V?$basic_string@DU?$char_traits@D@std@@V?$allocator@D@2@@std@@@std@@@2@$00@std@@QEAAAEAV?$allocator@U?$_List_node@V?$basic_string@DU?$char_traits@D@std@@V?$allocator@D@2@@std@@PEAX@std@@@2@XZ
	?_Get_first@?$_Compressed_pair@V?$allocator@U?$_List_node@V?$basic_string@DU?$char_traits@D@std@@V?$allocator@D@2@@std@@PEAX@std@@@std@@V?$_List_val@U?$_List_simple_types@V?$basic_string@DU?$char_traits@D@std@@V?$allocator@D@2@@std@@@std@@@2@$00@std@@QEBAAEBV?$allocator@U?$_List_node@V?$basic_string@DU?$char_traits@D@std@@V?$allocator@D@2@@std@@PEAX@std@@@2@XZ
	?_Get_first@?$_Compressed_pair@V?$allocator@U?$_Tree_node@U?$pair@$$CBV?$basic_string@DU?$char_traits@D@std@@V?$allocator@D@2@@std@@UsResourceFile@ResourcePack@olc@@@std@@PEAX@std@@@std@@V?$_Tree_val@U?$_Tree_simple_types@U?$pair@$$CBV?$basic_string@DU?$char_traits@D@std@@V?$allocator@D@2@@std@@UsResourceFile@ResourcePack@olc@@@std@@@std@@@2@$00@std@@QEAAAEAV?$allocator@U?$_Tree_node@U?$pair@$$CBV?$basic_string@DU?$char_traits@D@std@@V?$allocator@D@2@@std@@UsResourceFile@ResourcePack@olc@@@std@@PEAX@std@@@2@XZ
	?_Get_first@?$_Compressed_pair@V?$allocator@U?$_Tree_node@U?$pair@$$CBV?$basic_string@DU?$char_traits@D@std@@V?$allocator@D@2@@std@@UsResourceFile@ResourcePack@olc@@@std@@PEAX@std@@@std@@V?$_Tree_val@U?$_Tree_simple_types@U?$pair@$$CBV?$basic_string@DU?$char_traits@D@std@@V?$allocator@D@2@@std@@UsResourceFile@ResourcePack@olc@@@std@@@std@@@2@$00@std@@QEBAAEBV?$allocator@U?$_Tree_node@U?$pair@$$CBV?$basic_string@DU?$char_traits@D@std@@V?$allocator@D@2@@std@@UsResourceFile@ResourcePack@olc@@@std@@PEAX@std@@@2@XZ
	?_Get_first@?$_Compressed_pair@V?$allocator@U?$_Tree_node@U?$pair@$$CB_KW4Key@olc@@@std@@PEAX@std@@@std@@V?$_Tree_val@U?$_Tree_simple_types@U?$pair@$$CB_KW4Key@olc@@@std@@@std@@@2@$00@std@@QEAAAEAV?$allocator@U?$_Tree_node@U?$pair@$$CB_KW4Key@olc@@@std@@PEAX@std@@@2@XZ
	?_Get_first@?$_Compressed_pair@V?$allocator@U?$_Tree_node@U?$pair@$$CB_KW4Key@olc@@@std@@PEAX@std@@@std@@V?$_Tree_val@U?$_Tree_simple_types@U?$pair@$$CB_KW4Key@olc@@@std@@@std@@@2@$00@std@@QEBAAEBV?$allocator@U?$_Tree_node@U?$pair@$$CB_KW4Key@olc@@@std@@PEAX@std@@@2@XZ
	?_Get_first@?$_Compressed_pair@V?$allocator@U?$v_2d@H@olc@@@std@@V?$_Vector_val@U?$_Simple_types@U?$v_2d@H@olc@@@std@@@2@$00@std@@QEAAAEAV?$allocator@U?$v_2d@H@olc@@@2@XZ
	?_Get_first@?$_Compressed_pair@V?$allocator@U?$v_2d@H@olc@@@std@@V?$_Vector_val@U?$_Simple_types@U?$v_2d@H@olc@@@std@@@2@$00@std@@QEBAAEBV?$allocator@U?$v_2d@H@olc@@@2@XZ
	?_Get_first@?$_Compressed_pair@V?$allocator@U?$v_2d@M@olc@@@std@@V?$_Vector_val@U?$_Simple_types@U?$v_2d@M@olc@@@std@@@2@$00@std@@QEAAAEAV?$allocator@U?$v_2d@M@olc@@@2@XZ
	?_Get_first@?$_Compressed_pair@V?$allocator@U?$v_2d@M@olc@@@std@@V?$_Vector_val@U?$_Simple_types@U?$v_2d@M@olc@@@std@@@2@$00@std@@QEBAAEBV?$allocator@U?$v_2d@M@olc@@@2@XZ
	?_Get_first@?$_Compressed_pair@V?$allocator@UDecalInstance@olc@@@std@@V?$_Vector_val@U?$_Simple_types@UDecalInstance@olc@@@std@@@2@$00@std@@QEAAAEAV?$allocator@UDecalInstance@olc@@@2@XZ
	?_Get_first@?$_Compressed_pair@V?$allocator@UDecalInstance@olc@@@std@@V?$_Vector_val@U?$_Simple_types@UDecalInstance@olc@@@std@@@2@$00@std@@QEBAAEBV?$allocator@UDecalInstance@olc@@@2@XZ
	?_Get_first@?$_Compressed_pair@V?$allocator@UGPUTask@olc@@@std@@V?$_Vector_val@U?$_Simple_types@UGPUTask@olc@@@std@@@2@$00@std@@QEAAAEAV?$allocator@UGPUTask@olc@@@2@XZ
	?_Get_first@?$_Compressed_pair@V?$allocator@UGPUTask@olc@@@std@@V?$_Vector_val@U?$_Simple_types@UGPUTask@olc@@@std@@@2@$00@std@@QEBAAEBV?$allocator@UGPUTask@olc@@@2@XZ
	?_Get_first@?$_Compressed_pair@V?$allocator@ULayerDesc@olc@@@std@@V?$_Vector_val@U?$_Simple_types@ULayerDesc@olc@@@std@@@2@$00@std@@QEAAAEAV?$allocator@ULayerDesc@olc@@@2@XZ
	?_Get_first@?$_Compressed_pair@V?$allocator@ULayerDesc@olc@@@std@@V?$_Vector_val@U?$_Simple_types@ULayerDesc@olc@@@std@@@2@$00@std@@QEBAAEBV?$allocator@ULayerDesc@olc@@@2@XZ
	?_Get_first@?$_Compressed_pair@V?$allocator@UPixel@olc@@@std@@V?$_Vector_val@U?$_Simple_types@UPixel@olc@@@std@@@2@$00@std@@QEAAAEAV?$allocator@UPixel@olc@@@2@XZ
	?_Get_first@?$_Compressed_pair@V?$allocator@UPixel@olc@@@std@@V?$_Vector_val@U?$_Simple_types@UPixel@olc@@@std@@@2@$00@std@@QEBAAEBV?$allocator@UPixel@olc@@@2@XZ
	?_Get_first@?$_Compressed_pair@V?$allocator@UVertex@GPUTask@olc@@@std@@V?$_Vector_val@U?$_Simple_types@UVertex@GPUTask@olc@@@std@@@2@$00@std@@QEAAAEAV?$allocator@UVertex@GPUTask@olc@@@2@XZ
	?_Get_first@?$_Compressed_pair@V?$allocator@UVertex@GPUTask@olc@@@std@@V?$_Vector_val@U?$_Simple_types@UVertex@GPUTask@olc@@@std@@@2@$00@std@@QEBAAEBV?$allocator@UVertex@GPUTask@olc@@@2@XZ
	?_Get_first@?$_Compressed_pair@V?$allocator@V?$_List_unchecked_iterator@V?$_List_val@U?$_List_simple_types@U?$pair@$$CBW4Key@olc@@V?$tuple@V?$basic_string@DU?$char_traits@D@std@@V?$allocator@D@2@@std@@V12@V12@V12@@std@@@std@@@std@@@std@@@std@@@std@@V?$_Vector_val@U?$_Simple_types@V?$_List_unchecked_iterator@V?$_List_val@U?$_List_simple_types@U?$pair@$$CBW4Key@olc@@V?$tuple@V?$basic_string@DU?$char_traits@D@std@@V?$allocator@D@2@@std@@V12@V12@V12@@std@@@std@@@std@@@std@@@std@@@std@@@2@$00@std@@QEAAAEAV?$allocator@V?$_List_unchecked_iterator@V?$_List_val@U?$_List_simple_types@U?$pair@$$CBW4Key@olc@@V?$tuple@V?$basic_string@DU?$char_traits@D@std@@V?$allocator@D@2@@std@@V12@V12@V12@@std@@@std@@@std@@@std@@@std@@@2@XZ
	?_Get_first@?$_Compressed_pair@V?$allocator@V?$_List_unchecked_iterator@V?$_List_val@U?$_List_simple_types@U?$pair@$$CBW4Key@olc@@V?$tuple@V?$basic_string@DU?$char_traits@D@std@@V?$allocator@D@2@@std@@V12@V12@V12@@std@@@std@@@std@@@std@@@std@@@std@@V?$_Vector_val@U?$_Simple_types@V?$_List_unchecked_iterator@V?$_List_val@U?$_List_simple_types@U?$pair@$$CBW4Key@olc@@V?$tuple@V?$basic_string@DU?$char_traits@D@std@@V?$allocator@D@2@@std@@V12@V12@V12@@std@@@std@@@std@@@std@@@std@@@std@@@2@$00@std@@QEBAAEBV?$allocator@V?$_List_unchecked_iterator@V?$_List_val@U?$_List_simple_types@U?$pair@$$CBW4Key@olc@@V?$tuple@V?$basic_string@DU?$char_traits@D@std@@V?$allocator@D@2@@std@@V12@V12@V12@@std@@@std@@@std@@@std@@@std@@@2@XZ
	?_Get_first@?$_Compressed_pair@V?$allocator@V?$basic_string@DU?$char_traits@D@std@@V?$allocator@D@2@@std@@@std@@V?$_Vector_val@U?$_Simple_types@V?$basic_string@DU?$char_traits@D@std@@V?$allocator@D@2@@std@@@std@@@2@$00@std@@QEAAAEAV?$allocator@V?$basic_string@DU?$char_traits@D@std@@V?$allocator@D@2@@std@@@2@XZ
	?_Get_first@?$_Compressed_pair@V?$allocator@V?$basic_string@DU?$char_traits@D@std@@V?$allocator@D@2@@std@@@std@@V?$_Vector_val@U?$_Simple_types@V?$basic_string@DU?$char_traits@D@std@@V?$allocator@D@2@@std@@@std@@@2@$00@std@@QEBAAEBV?$allocator@V?$basic_string@DU?$char_traits@D@std@@V?$allocator@D@2@@std@@@2@XZ
	?_Get_first@?$_Compressed_pair@V?$allocator@_W@std@@V?$_String_val@U?$_Simple_types@_W@std@@@2@$00@std@@QEAAAEAV?$allocator@_W@2@XZ
	?_Get_first@?$_Compressed_pair@V?$allocator@_W@std@@V?$_String_val@U?$_Simple_types@_W@std@@@2@$00@std@@QEBAAEBV?$allocator@_W@2@XZ
	?_Get_max_bucket_size@?$_Uhash_compare@W4Key@olc@@U?$hash@W4Key@olc@@@std@@U?$equal_to@W4Key@olc@@@4@@std@@QEAAAEAMXZ
	?_Get_max_bucket_size@?$_Uhash_compare@W4Key@olc@@U?$hash@W4Key@olc@@@std@@U?$equal_to@W4Key@olc@@@4@@std@@QEBAAEBMXZ
	?_Get_scary@?$_Tree@V?$_Tmap_traits@V?$basic_string@DU?$char_traits@D@std@@V?$allocator@D@2@@std@@UsResourceFile@ResourcePack@olc@@U?$less@V?$basic_string@DU?$char_traits@D@std@@V?$allocator@D@2@@std@@@2@V?$allocator@U?$pair@$$CBV?$basic_string@DU?$char_traits@D@std@@V?$allocator@D@2@@std@@UsResourceFile@ResourcePack@olc@@@std@@@2@$0A@@std@@@std@@IEAAPEAV?$_Tree_val@U?$_Tree_simple_types@U?$pair@$$CBV?$basic_string@DU?$char_traits@D@std@@V?$allocator@D@2@@std@@UsResourceFile@ResourcePack@olc@@@std@@@std@@@2@XZ
	?_Get_scary@?$_Tree@V?$_Tmap_traits@V?$basic_string@DU?$char_traits@D@std@@V?$allocator@D@2@@std@@UsResourceFile@ResourcePack@olc@@U?$less@V?$basic_string@DU?$char_traits@D@std@@V?$allocator@D@2@@std@@@2@V?$allocator@U?$pair@$$CBV?$basic_string@DU?$char_traits@D@std@@V?$allocator@D@2@@std@@UsResourceFile@ResourcePack@olc@@@std@@@2@$0A@@std@@@std@@IEBAPEBV?$_Tree_val@U?$_Tree_simple_types@U?$pair@$$CBV?$basic_string@DU?$char_traits@D@std@@V?$allocator@D@2@@std@@UsResourceFile@ResourcePack@olc@@@std@@@std@@@2@XZ
	?_Get_scary@?$_Tree@V?$_Tmap_traits@_KW4Key@olc@@U?$less@_K@std@@V?$allocator@U?$pair@$$CB_KW4Key@olc@@@std@@@4@$0A@@std@@@std@@IEAAPEAV?$_Tree_val@U?$_Tree_simple_types@U?$pair@$$CB_KW4Key@olc@@@std@@@std@@@2@XZ
	?_Get_scary@?$_Tree@V?$_Tmap_traits@_KW4Key@olc@@U?$less@_K@std@@V?$allocator@U?$pair@$$CB_KW4Key@olc@@@std@@@4@$0A@@std@@@std@@IEBAPEBV?$_Tree_val@U?$_Tree_simple_types@U?$pair@$$CB_KW4Key@olc@@@std@@@std@@@2@XZ
	?_Getal@?$_Tree@V?$_Tmap_traits@V?$basic_string@DU?$char_traits@D@std@@V?$allocator@D@2@@std@@UsResourceFile@ResourcePack@olc@@U?$less@V?$basic_string@DU?$char_traits@D@std@@V?$allocator@D@2@@std@@@2@V?$allocator@U?$pair@$$CBV?$basic_string@DU?$char_traits@D@std@@V?$allocator@D@2@@std@@UsResourceFile@ResourcePack@olc@@@std@@@2@$0A@@std@@@std@@IEAAAEAV?$allocator@U?$_Tree_node@U?$pair@$$CBV?$basic_string@DU?$char_traits@D@std@@V?$allocator@D@2@@std@@UsResourceFile@ResourcePack@olc@@@std@@PEAX@std@@@2@XZ
	?_Getal@?$_Tree@V?$_Tmap_traits@V?$basic_string@DU?$char_traits@D@std@@V?$allocator@D@2@@std@@UsResourceFile@ResourcePack@olc@@U?$less@V?$basic_string@DU?$char_traits@D@std@@V?$allocator@D@2@@std@@@2@V?$allocator@U?$pair@$$CBV?$basic_string@DU?$char_traits@D@std@@V?$allocator@D@2@@std@@UsResourceFile@ResourcePack@olc@@@std@@@2@$0A@@std@@@std@@IEBAAEBV?$allocator@U?$_Tree_node@U?$pair@$$CBV?$basic_string@DU?$char_traits@D@std@@V?$allocator@D@2@@std@@UsResourceFile@ResourcePack@olc@@@std@@PEAX@std@@@2@XZ
	?_Getal@?$_Tree@V?$_Tmap_traits@_KW4Key@olc@@U?$less@_K@std@@V?$allocator@U?$pair@$$CB_KW4Key@olc@@@std@@@4@$0A@@std@@@std@@IEAAAEAV?$allocator@U?$_Tree_node@U?$pair@$$CB_KW4Key@olc@@@std@@PEAX@std@@@2@XZ
	?_Getal@?$_Tree@V?$_Tmap_traits@_KW4Key@olc@@U?$less@_K@std@@V?$allocator@U?$pair@$$CB_KW4Key@olc@@@std@@@4@$0A@@std@@@std@@IEBAAEBV?$allocator@U?$_Tree_node@U?$pair@$$CB_KW4Key@olc@@@std@@PEAX@std@@@2@XZ
	?_Getal@?$basic_string@DU?$char_traits@D@std@@V?$allocator@D@2@@std@@AEAAAEAV?$allocator@D@2@XZ
	?_Getal@?$basic_string@DU?$char_traits@D@std@@V?$allocator@D@2@@std@@AEBAAEBV?$allocator@D@2@XZ
	?_Getal@?$basic_string@_WU?$char_traits@_W@std@@V?$allocator@_W@2@@std@@AEAAAEAV?$allocator@_W@2@XZ
	?_Getal@?$basic_string@_WU?$char_traits@_W@std@@V?$allocator@_W@2@@std@@AEBAAEBV?$allocator@_W@2@XZ
	?_Getal@?$list@U?$pair@$$CBW4Key@olc@@V?$tuple@V?$basic_string@DU?$char_traits@D@std@@V?$allocator@D@2@@std@@V12@V12@V12@@std@@@std@@V?$allocator@U?$pair@$$CBW4Key@olc@@V?$tuple@V?$basic_string@DU?$char_traits@D@std@@V?$allocator@D@2@@std@@V12@V12@V12@@std@@@std@@@2@@std@@AEAAAEAV?$allocator@U?$_List_node@U?$pair@$$CBW4Key@olc@@V?$tuple@V?$basic_string@DU?$char_traits@D@std@@V?$allocator@D@2@@std@@V12@V12@V12@@std@@@std@@PEAX@std@@@2@XZ
	?_Getal@?$list@U?$pair@$$CBW4Key@olc@@V?$tuple@V?$basic_string@DU?$char_traits@D@std@@V?$allocator@D@2@@std@@V12@V12@V12@@std@@@std@@V?$allocator@U?$pair@$$CBW4Key@olc@@V?$tuple@V?$basic_string@DU?$char_traits@D@std@@V?$allocator@D@2@@std@@V12@V12@V12@@std@@@std@@@2@@std@@AEBAAEBV?$allocator@U?$_List_node@U?$pair@$$CBW4Key@olc@@V?$tuple@V?$basic_string@DU?$char_traits@D@std@@V?$allocator@D@2@@std@@V12@V12@V12@@std@@@std@@PEAX@std@@@2@XZ
	?_Getal@?$list@V?$basic_string@DU?$char_traits@D@std@@V?$allocator@D@2@@std@@V?$allocator@V?$basic_string@DU?$char_traits@D@std@@V?$allocator@D@2@@std@@@2@@std@@AEAAAEAV?$allocator@U?$_List_node@V?$basic_string@DU?$char_traits@D@std@@V?$allocator@D@2@@std@@PEAX@std@@@2@XZ
	?_Getal@?$list@V?$basic_string@DU?$char_traits@D@std@@V?$allocator@D@2@@std@@V?$allocator@V?$basic_string@DU?$char_traits@D@std@@V?$allocator@D@2@@std@@@2@@std@@AEBAAEBV?$allocator@U?$_List_node@V?$basic_string@DU?$char_traits@D@std@@V?$allocator@D@2@@std@@PEAX@std@@@2@XZ
	?_Getal@?$vector@DV?$allocator@D@std@@@std@@AEAAAEAV?$allocator@D@2@XZ
	?_Getal@?$vector@DV?$allocator@D@std@@@std@@AEBAAEBV?$allocator@D@2@XZ
	?_Getal@?$vector@EV?$allocator@E@std@@@std@@AEAAAEAV?$allocator@E@2@XZ
	?_Getal@?$vector@EV?$allocator@E@std@@@std@@AEBAAEBV?$allocator@E@2@XZ
	?_Getal@?$vector@HV?$allocator@H@std@@@std@@AEAAAEAV?$allocator@H@2@XZ
	?_Getal@?$vector@HV?$allocator@H@std@@@std@@AEBAAEBV?$allocator@H@2@XZ
	?_Getal@?$vector@MV?$allocator@M@std@@@std@@AEAAAEAV?$allocator@M@2@XZ
	?_Getal@?$vector@MV?$allocator@M@std@@@std@@AEBAAEBV?$allocator@M@2@XZ
	?_Getal@?$vector@PEAVPGEX@olc@@V?$allocator@PEAVPGEX@olc@@@std@@@std@@AEAAAEAV?$allocator@PEAVPGEX@olc@@@2@XZ
	?_Getal@?$vector@PEAVPGEX@olc@@V?$allocator@PEAVPGEX@olc@@@std@@@std@@AEBAAEBV?$allocator@PEAVPGEX@olc@@@2@XZ
	?_Getal@?$vector@PEAXV?$allocator@PEAX@std@@@std@@AEAAAEAV?$allocator@PEAX@2@XZ
	?_Getal@?$vector@PEAXV?$allocator@PEAX@std@@@std@@AEBAAEBV?$allocator@PEAX@2@XZ
	?_Getal@?$vector@U?$v_2d@H@olc@@V?$allocator@U?$v_2d@H@olc@@@std@@@std@@AEAAAEAV?$allocator@U?$v_2d@H@olc@@@2@XZ
	?_Getal@?$vector@U?$v_2d@H@olc@@V?$allocator@U?$v_2d@H@olc@@@std@@@std@@AEBAAEBV?$allocator@U?$v_2d@H@olc@@@2@XZ
	?_Getal@?$vector@U?$v_2d@M@olc@@V?$allocator@U?$v_2d@M@olc@@@std@@@std@@AEAAAEAV?$allocator@U?$v_2d@M@olc@@@2@XZ
	?_Getal@?$vector@U?$v_2d@M@olc@@V?$allocator@U?$v_2d@M@olc@@@std@@@std@@AEBAAEBV?$allocator@U?$v_2d@M@olc@@@2@XZ
	?_Getal@?$vector@UDecalInstance@olc@@V?$allocator@UDecalInstance@olc@@@std@@@std@@AEAAAEAV?$allocator@UDecalInstance@olc@@@2@XZ
	?_Getal@?$vector@UDecalInstance@olc@@V?$allocator@UDecalInstance@olc@@@std@@@std@@AEBAAEBV?$allocator@UDecalInstance@olc@@@2@XZ
	?_Getal@?$vector@UGPUTask@olc@@V?$allocator@UGPUTask@olc@@@std@@@std@@AEAAAEAV?$allocator@UGPUTask@olc@@@2@XZ
	?_Getal@?$vector@UGPUTask@olc@@V?$allocator@UGPUTask@olc@@@std@@@std@@AEBAAEBV?$allocator@UGPUTask@olc@@@2@XZ
	?_Getal@?$vector@ULayerDesc@olc@@V?$allocator@ULayerDesc@olc@@@std@@@std@@AEAAAEAV?$allocator@ULayerDesc@olc@@@2@XZ
	?_Getal@?$vector@ULayerDesc@olc@@V?$allocator@ULayerDesc@olc@@@std@@@std@@AEBAAEBV?$allocator@ULayerDesc@olc@@@2@XZ
	?_Getal@?$vector@UPixel@olc@@V?$allocator@UPixel@olc@@@std@@@std@@AEAAAEAV?$allocator@UPixel@olc@@@2@XZ
	?_Getal@?$vector@UPixel@olc@@V?$allocator@UPixel@olc@@@std@@@std@@AEBAAEBV?$allocator@UPixel@olc@@@2@XZ
	?_Getal@?$vector@UVertex@GPUTask@olc@@V?$allocator@UVertex@GPUTask@olc@@@std@@@std@@AEAAAEAV?$allocator@UVertex@GPUTask@olc@@@2@XZ
	?_Getal@?$vector@UVertex@GPUTask@olc@@V?$allocator@UVertex@GPUTask@olc@@@std@@@std@@AEBAAEBV?$allocator@UVertex@GPUTask@olc@@@2@XZ
	?_Getal@?$vector@V?$basic_string@DU?$char_traits@D@std@@V?$allocator@D@2@@std@@V?$allocator@V?$basic_string@DU?$char_traits@D@std@@V?$allocator@D@2@@std@@@2@@std@@AEAAAEAV?$allocator@V?$basic_string@DU?$char_traits@D@std@@V?$allocator@D@2@@std@@@2@XZ
	?_Getal@?$vector@V?$basic_string@DU?$char_traits@D@std@@V?$allocator@D@2@@std@@V?$allocator@V?$basic_string@DU?$char_traits@D@std@@V?$allocator@D@2@@std@@@2@@std@@AEBAAEBV?$allocator@V?$basic_string@DU?$char_traits@D@std@@V?$allocator@D@2@@std@@@2@XZ
	?_Getcomp@?$_Tree@V?$_Tmap_traits@V?$basic_string@DU?$char_traits@D@std@@V?$allocator@D@2@@std@@UsResourceFile@ResourcePack@olc@@U?$less@V?$basic_string@DU?$char_traits@D@std@@V?$allocator@D@2@@std@@@2@V?$allocator@U?$pair@$$CBV?$basic_string@DU?$char_traits@D@std@@V?$allocator@D@2@@std@@UsResourceFile@ResourcePack@olc@@@std@@@2@$0A@@std@@@std@@IEBAAEBU?$less@V?$basic_string@DU?$char_traits@D@std@@V?$allocator@D@2@@std@@@2@XZ
	?_Getcomp@?$_Tree@V?$_Tmap_traits@_KW4Key@olc@@U?$less@_K@std@@V?$allocator@U?$pair@$$CB_KW4Key@olc@@@std@@@4@$0A@@std@@@std@@IEBAAEBU?$less@_K@2@XZ
	?_Getcont@_Iterator_base12@std@@QEBAPEBU_Container_base12@2@XZ
	?_Getfacet@locale@std@@QEBAPEBVfacet@12@_K@Z
	?_Getimpl@?$_Func_class@UPixel@olc@@HHAEBU12@AEBU12@@std@@AEBAPEAV?$_Func_base@UPixel@olc@@HHAEBU12@AEBU12@@2@XZ
	?_Getimpl@?$_Func_class@X$$V@std@@AEBAPEAV?$_Func_base@X$$V@2@XZ
	?_Getstate@?$basic_stringbuf@DU?$char_traits@D@std@@V?$allocator@D@2@@std@@CAHH@Z
	?_Init@?$basic_filebuf@DU?$char_traits@D@std@@@std@@IEAAXPEAU_iobuf@@W4_Initfl@12@@Z
	?_Initcvt@?$basic_filebuf@DU?$char_traits@D@std@@@std@@IEAAXAEBV?$codecvt@DDU_Mbstatet@@@2@@Z
	?_Insert_new_node_before@?$_Hash@V?$_Umap_traits@W4Key@olc@@V?$tuple@V?$basic_string@DU?$char_traits@D@std@@V?$allocator@D@2@@std@@V12@V12@V12@@std@@V?$_Uhash_compare@W4Key@olc@@U?$hash@W4Key@olc@@@std@@U?$equal_to@W4Key@olc@@@4@@4@V?$allocator@U?$pair@$$CBW4Key@olc@@V?$tuple@V?$basic_string@DU?$char_traits@D@std@@V?$allocator@D@2@@std@@V12@V12@V12@@std@@@std@@@4@$0A@@std@@@std@@IEAAPEAU?$_List_node@U?$pair@$$CBW4Key@olc@@V?$tuple@V?$basic_string@DU?$char_traits@D@std@@V?$allocator@D@2@@std@@V12@V12@V12@@std@@@std@@PEAX@2@_KQEAU32@1@Z
	?_Insert_node@?$_Tree_val@U?$_Tree_simple_types@U?$pair@$$CBV?$basic_string@DU?$char_traits@D@std@@V?$allocator@D@2@@std@@UsResourceFile@ResourcePack@olc@@@std@@@std@@@std@@QEAAPEAU?$_Tree_node@U?$pair@$$CBV?$basic_string@DU?$char_traits@D@std@@V?$allocator@D@2@@std@@UsResourceFile@ResourcePack@olc@@@std@@PEAX@2@U?$_Tree_id@PEAU?$_Tree_node@U?$pair@$$CBV?$basic_string@DU?$char_traits@D@std@@V?$allocator@D@2@@std@@UsResourceFile@ResourcePack@olc@@@std@@PEAX@std@@@2@QEAU32@@Z
	?_Insert_node@?$_Tree_val@U?$_Tree_simple_types@U?$pair@$$CB_KW4Key@olc@@@std@@@std@@@std@@QEAAPEAU?$_Tree_node@U?$pair@$$CB_KW4Key@olc@@@std@@PEAX@2@U?$_Tree_id@PEAU?$_Tree_node@U?$pair@$$CB_KW4Key@olc@@@std@@PEAX@std@@@2@QEAU32@@Z
	?_Is_constant_evaluated@std@@YA_NXZ
	?_Large_mode_engaged@?$_String_val@U?$_Simple_types@D@std@@@std@@QEBA_NXZ
	?_Large_mode_engaged@?$_String_val@U?$_Simple_types@_W@std@@@std@@QEBA_NXZ
	?_Local@?$_Func_class@UPixel@olc@@HHAEBU12@AEBU12@@std@@AEBA_NXZ
	?_Local@?$_Func_class@X$$V@std@@AEBA_NXZ
	?_Lock@?$basic_filebuf@DU?$char_traits@D@std@@@std@@UEAAXXZ
	?_Lrotate@?$_Tree_val@U?$_Tree_simple_types@U?$pair@$$CBV?$basic_string@DU?$char_traits@D@std@@V?$allocator@D@2@@std@@UsResourceFile@ResourcePack@olc@@@std@@@std@@@std@@QEAAXPEAU?$_Tree_node@U?$pair@$$CBV?$basic_string@DU?$char_traits@D@std@@V?$allocator@D@2@@std@@UsResourceFile@ResourcePack@olc@@@std@@PEAX@2@@Z
	?_Lrotate@?$_Tree_val@U?$_Tree_simple_types@U?$pair@$$CB_KW4Key@olc@@@std@@@std@@@std@@QEAAXPEAU?$_Tree_node@U?$pair@$$CB_KW4Key@olc@@@std@@PEAX@2@@Z
	?_Make_ec@std@@YA?AVerror_code@1@W4__std_win_error@@@Z
	?_Make_iter@?$list@U?$pair@$$CBW4Key@olc@@V?$tuple@V?$basic_string@DU?$char_traits@D@std@@V?$allocator@D@2@@std@@V12@V12@V12@@std@@@std@@V?$allocator@U?$pair@$$CBW4Key@olc@@V?$tuple@V?$basic_string@DU?$char_traits@D@std@@V?$allocator@D@2@@std@@V12@V12@V12@@std@@@std@@@2@@std@@QEBA?AV?$_List_iterator@V?$_List_val@U?$_List_simple_types@U?$pair@$$CBW4Key@olc@@V?$tuple@V?$basic_string@DU?$char_traits@D@std@@V?$allocator@D@2@@std@@V12@V12@V12@@std@@@std@@@std@@@std@@@2@PEAU?$_List_node@U?$pair@$$CBW4Key@olc@@V?$tuple@V?$basic_string@DU?$char_traits@D@std@@V?$allocator@D@2@@std@@V12@V12@V12@@std@@@std@@PEAX@2@@Z
	?_Makestr@_System_error@std@@CA?AV?$basic_string@DU?$char_traits@D@std@@V?$allocator@D@2@@2@Verror_code@2@V32@@Z
	?_Maklocwcs@std@@YAPEA_WPEB_W@Z
	?_Max_bucket_size@?$_Hash@V?$_Umap_traits@W4Key@olc@@V?$tuple@V?$basic_string@DU?$char_traits@D@std@@V?$allocator@D@2@@std@@V12@V12@V12@@std@@V?$_Uhash_compare@W4Key@olc@@U?$hash@W4Key@olc@@@std@@U?$equal_to@W4Key@olc@@@4@@4@V?$allocator@U?$pair@$$CBW4Key@olc@@V?$tuple@V?$basic_string@DU?$char_traits@D@std@@V?$allocator@D@2@@std@@V12@V12@V12@@std@@@std@@@4@$0A@@std@@@std@@IEAAAEAMXZ
	?_Max_bucket_size@?$_Hash@V?$_Umap_traits@W4Key@olc@@V?$tuple@V?$basic_string@DU?$char_traits@D@std@@V?$allocator@D@2@@std@@V12@V12@V12@@std@@V?$_Uhash_compare@W4Key@olc@@U?$hash@W4Key@olc@@@std@@U?$equal_to@W4Key@olc@@@4@@4@V?$allocator@U?$pair@$$CBW4Key@olc@@V?$tuple@V?$basic_string@DU?$char_traits@D@std@@V?$allocator@D@2@@std@@V12@V12@V12@@std@@@std@@@4@$0A@@std@@@std@@IEBAAEBMXZ
	?_Min@?$_Tree_val@U?$_Tree_simple_types@U?$pair@$$CBV?$basic_string@DU?$char_traits@D@std@@V?$allocator@D@2@@std@@UsResourceFile@ResourcePack@olc@@@std@@@std@@@std@@SAPEAU?$_Tree_node@U?$pair@$$CBV?$basic_string@DU?$char_traits@D@std@@V?$allocator@D@2@@std@@UsResourceFile@ResourcePack@olc@@@std@@PEAX@2@PEAU32@@Z
	?_Min_load_factor_buckets@?$_Hash@V?$_Umap_traits@W4Key@olc@@V?$tuple@V?$basic_string@DU?$char_traits@D@std@@V?$allocator@D@2@@std@@V12@V12@V12@@std@@V?$_Uhash_compare@W4Key@olc@@U?$hash@W4Key@olc@@@std@@U?$equal_to@W4Key@olc@@@4@@4@V?$allocator@U?$pair@$$CBW4Key@olc@@V?$tuple@V?$basic_string@DU?$char_traits@D@std@@V?$allocator@D@2@@std@@V12@V12@V12@@std@@@std@@@4@$0A@@std@@@std@@IEBA_K_K@Z
	?_Myptr@?$_String_val@U?$_Simple_types@D@std@@@std@@QEAAPEADXZ
	?_Myptr@?$_String_val@U?$_Simple_types@D@std@@@std@@QEBAPEBDXZ
	?_Myptr@?$_String_val@U?$_Simple_types@_W@std@@@std@@QEAAPEA_WXZ
	?_Myptr@?$_String_val@U?$_Simple_types@_W@std@@@std@@QEBAPEB_WXZ
	?_Orphan_all@_Container_base12@std@@QEAAXXZ
	?_Orphan_all_locked_v3@_Container_base12@std@@AEAAXXZ
	?_Orphan_all_unlocked_v3@_Container_base12@std@@AEAAXXZ
	?_Orphan_me_locked_v3@_Iterator_base12@std@@AEAAXXZ
	?_Orphan_me_unlocked_v3@_Iterator_base12@std@@AEAAXXZ
	?_Orphan_non_end@?$_List_val@U?$_List_simple_types@U?$pair@$$CBW4Key@olc@@V?$tuple@V?$basic_string@DU?$char_traits@D@std@@V?$allocator@D@2@@std@@V12@V12@V12@@std@@@std@@@std@@@std@@QEAAXXZ
	?_Orphan_range@?$vector@DV?$allocator@D@std@@@std@@AEBAXPEAD0@Z
	?_Orphan_range@?$vector@HV?$allocator@H@std@@@std@@AEBAXPEAH0@Z
	?_Orphan_range@?$vector@MV?$allocator@M@std@@@std@@AEBAXPEAM0@Z
	?_Orphan_range@?$vector@PEAVPGEX@olc@@V?$allocator@PEAVPGEX@olc@@@std@@@std@@AEBAXPEAPEAVPGEX@olc@@0@Z
	?_Orphan_range@?$vector@U?$v_2d@H@olc@@V?$allocator@U?$v_2d@H@olc@@@std@@@std@@AEBAXPEAU?$v_2d@H@olc@@0@Z
	?_Orphan_range@?$vector@U?$v_2d@M@olc@@V?$allocator@U?$v_2d@M@olc@@@std@@@std@@AEBAXPEAU?$v_2d@M@olc@@0@Z
	?_Orphan_range@?$vector@UDecalInstance@olc@@V?$allocator@UDecalInstance@olc@@@std@@@std@@AEBAXPEAUDecalInstance@olc@@0@Z
	?_Orphan_range@?$vector@UGPUTask@olc@@V?$allocator@UGPUTask@olc@@@std@@@std@@AEBAXPEAUGPUTask@olc@@0@Z
	?_Orphan_range@?$vector@ULayerDesc@olc@@V?$allocator@ULayerDesc@olc@@@std@@@std@@AEBAXPEAULayerDesc@olc@@0@Z
	?_Orphan_range@?$vector@UPixel@olc@@V?$allocator@UPixel@olc@@@std@@@std@@AEBAXPEAUPixel@olc@@0@Z
	?_Orphan_range@?$vector@UVertex@GPUTask@olc@@V?$allocator@UVertex@GPUTask@olc@@@std@@@std@@AEBAXPEAUVertex@GPUTask@olc@@0@Z
	?_Orphan_range@?$vector@V?$basic_string@DU?$char_traits@D@std@@V?$allocator@D@2@@std@@V?$allocator@V?$basic_string@DU?$char_traits@D@std@@V?$allocator@D@2@@std@@@2@@std@@AEBAXPEAV?$basic_string@DU?$char_traits@D@std@@V?$allocator@D@2@@2@0@Z
	?_Orphan_range_locked@?$vector@DV?$allocator@D@std@@@std@@AEBAXPEAD0@Z
	?_Orphan_range_locked@?$vector@HV?$allocator@H@std@@@std@@AEBAXPEAH0@Z
	?_Orphan_range_locked@?$vector@MV?$allocator@M@std@@@std@@AEBAXPEAM0@Z
	?_Orphan_range_locked@?$vector@PEAVPGEX@olc@@V?$allocator@PEAVPGEX@olc@@@std@@@std@@AEBAXPEAPEAVPGEX@olc@@0@Z
	?_Orphan_range_locked@?$vector@U?$v_2d@H@olc@@V?$allocator@U?$v_2d@H@olc@@@std@@@std@@AEBAXPEAU?$v_2d@H@olc@@0@Z
	?_Orphan_range_locked@?$vector@U?$v_2d@M@olc@@V?$allocator@U?$v_2d@M@olc@@@std@@@std@@AEBAXPEAU?$v_2d@M@olc@@0@Z
	?_Orphan_range_locked@?$vector@UDecalInstance@olc@@V?$allocator@UDecalInstance@olc@@@std@@@std@@AEBAXPEAUDecalInstance@olc@@0@Z
	?_Orphan_range_locked@?$vector@UGPUTask@olc@@V?$allocator@UGPUTask@olc@@@std@@@std@@AEBAXPEAUGPUTask@olc@@0@Z
	?_Orphan_range_locked@?$vector@ULayerDesc@olc@@V?$allocator@ULayerDesc@olc@@@std@@@std@@AEBAXPEAULayerDesc@olc@@0@Z
	?_Orphan_range_locked@?$vector@UPixel@olc@@V?$allocator@UPixel@olc@@@std@@@std@@AEBAXPEAUPixel@olc@@0@Z
	?_Orphan_range_locked@?$vector@UVertex@GPUTask@olc@@V?$allocator@UVertex@GPUTask@olc@@@std@@@std@@AEBAXPEAUVertex@GPUTask@olc@@0@Z
	?_Orphan_range_locked@?$vector@V?$basic_string@DU?$char_traits@D@std@@V?$allocator@D@2@@std@@V?$allocator@V?$basic_string@DU?$char_traits@D@std@@V?$allocator@D@2@@std@@@2@@std@@AEBAXPEAV?$basic_string@DU?$char_traits@D@std@@V?$allocator@D@2@@2@0@Z
	?_Orphan_range_unlocked@?$vector@DV?$allocator@D@std@@@std@@AEBAXPEAD0@Z
	?_Orphan_range_unlocked@?$vector@HV?$allocator@H@std@@@std@@AEBAXPEAH0@Z
	?_Orphan_range_unlocked@?$vector@MV?$allocator@M@std@@@std@@AEBAXPEAM0@Z
	?_Orphan_range_unlocked@?$vector@PEAVPGEX@olc@@V?$allocator@PEAVPGEX@olc@@@std@@@std@@AEBAXPEAPEAVPGEX@olc@@0@Z
	?_Orphan_range_unlocked@?$vector@U?$v_2d@H@olc@@V?$allocator@U?$v_2d@H@olc@@@std@@@std@@AEBAXPEAU?$v_2d@H@olc@@0@Z
	?_Orphan_range_unlocked@?$vector@U?$v_2d@M@olc@@V?$allocator@U?$v_2d@M@olc@@@std@@@std@@AEBAXPEAU?$v_2d@M@olc@@0@Z
	?_Orphan_range_unlocked@?$vector@UDecalInstance@olc@@V?$allocator@UDecalInstance@olc@@@std@@@std@@AEBAXPEAUDecalInstance@olc@@0@Z
	?_Orphan_range_unlocked@?$vector@UGPUTask@olc@@V?$allocator@UGPUTask@olc@@@std@@@std@@AEBAXPEAUGPUTask@olc@@0@Z
	?_Orphan_range_unlocked@?$vector@ULayerDesc@olc@@V?$allocator@ULayerDesc@olc@@@std@@@std@@AEBAXPEAULayerDesc@olc@@0@Z
	?_Orphan_range_unlocked@?$vector@UPixel@olc@@V?$allocator@UPixel@olc@@@std@@@std@@AEBAXPEAUPixel@olc@@0@Z
	?_Orphan_range_unlocked@?$vector@UVertex@GPUTask@olc@@V?$allocator@UVertex@GPUTask@olc@@@std@@@std@@AEBAXPEAUVertex@GPUTask@olc@@0@Z
	?_Orphan_range_unlocked@?$vector@V?$basic_string@DU?$char_traits@D@std@@V?$allocator@D@2@@std@@V?$allocator@V?$basic_string@DU?$char_traits@D@std@@V?$allocator@D@2@@std@@@2@@std@@AEBAXPEAV?$basic_string@DU?$char_traits@D@std@@V?$allocator@D@2@@2@0@Z
	?_Pretty_message@filesystem_error@filesystem@std@@CA?AV?$basic_string@DU?$char_traits@D@std@@V?$allocator@D@2@@3@V?$basic_string_view@DU?$char_traits@D@std@@@3@AEBVpath@23@1@Z
	?_Refresh@file_status@filesystem@std@@QEAAXW4__std_win_error@@AEBU__std_fs_stats@@@Z
	?_Rehash_for_1@?$_Hash@V?$_Umap_traits@W4Key@olc@@V?$tuple@V?$basic_string@DU?$char_traits@D@std@@V?$allocator@D@2@@std@@V12@V12@V12@@std@@V?$_Uhash_compare@W4Key@olc@@U?$hash@W4Key@olc@@@std@@U?$equal_to@W4Key@olc@@@4@@4@V?$allocator@U?$pair@$$CBW4Key@olc@@V?$tuple@V?$basic_string@DU?$char_traits@D@std@@V?$allocator@D@2@@std@@V12@V12@V12@@std@@@std@@@4@$0A@@std@@@std@@IEAAXXZ
	?_Release@?$_Alloc_construct_ptr@V?$allocator@U?$_List_node@U?$pair@$$CBW4Key@olc@@V?$tuple@V?$basic_string@DU?$char_traits@D@std@@V?$allocator@D@2@@std@@V12@V12@V12@@std@@@std@@PEAX@std@@@std@@@std@@QEAAPEAU?$_List_node@U?$pair@$$CBW4Key@olc@@V?$tuple@V?$basic_string@DU?$char_traits@D@std@@V?$allocator@D@2@@std@@V12@V12@V12@@std@@@std@@PEAX@2@XZ
	?_Release@?$_Alloc_construct_ptr@V?$allocator@U?$_Tree_node@U?$pair@$$CBV?$basic_string@DU?$char_traits@D@std@@V?$allocator@D@2@@std@@UsResourceFile@ResourcePack@olc@@@std@@PEAX@std@@@std@@@std@@QEAAPEAU?$_Tree_node@U?$pair@$$CBV?$basic_string@DU?$char_traits@D@std@@V?$allocator@D@2@@std@@UsResourceFile@ResourcePack@olc@@@std@@PEAX@2@XZ
	?_Release@?$_Alloc_construct_ptr@V?$allocator@U?$_Tree_node@U?$pair@$$CB_KW4Key@olc@@@std@@PEAX@std@@@std@@@std@@QEAAPEAU?$_Tree_node@U?$pair@$$CB_KW4Key@olc@@@std@@PEAX@2@XZ
	?_Release@?$_Uninitialized_backout@PEAV?$_List_unchecked_iterator@V?$_List_val@U?$_List_simple_types@U?$pair@$$CBW4Key@olc@@V?$tuple@V?$basic_string@DU?$char_traits@D@std@@V?$allocator@D@2@@std@@V12@V12@V12@@std@@@std@@@std@@@std@@@std@@@std@@QEAAPEAV?$_List_unchecked_iterator@V?$_List_val@U?$_List_simple_types@U?$pair@$$CBW4Key@olc@@V?$tuple@V?$basic_string@DU?$char_traits@D@std@@V?$allocator@D@2@@std@@V12@V12@V12@@std@@@std@@@std@@@std@@@2@XZ
	?_Release@?$_Uninitialized_backout_al@V?$allocator@D@std@@@std@@QEAAPEADXZ
	?_Release@?$_Uninitialized_backout_al@V?$allocator@E@std@@@std@@QEAAPEAEXZ
	?_Release@?$_Uninitialized_backout_al@V?$allocator@H@std@@@std@@QEAAPEAHXZ
	?_Release@?$_Uninitialized_backout_al@V?$allocator@M@std@@@std@@QEAAPEAMXZ
	?_Release@?$_Uninitialized_backout_al@V?$allocator@PEAVPGEX@olc@@@std@@@std@@QEAAPEAPEAVPGEX@olc@@XZ
	?_Release@?$_Uninitialized_backout_al@V?$allocator@PEAX@std@@@std@@QEAAPEAPEAXXZ
	?_Release@?$_Uninitialized_backout_al@V?$allocator@U?$v_2d@H@olc@@@std@@@std@@QEAAPEAU?$v_2d@H@olc@@XZ
	?_Release@?$_Uninitialized_backout_al@V?$allocator@U?$v_2d@M@olc@@@std@@@std@@QEAAPEAU?$v_2d@M@olc@@XZ
	?_Release@?$_Uninitialized_backout_al@V?$allocator@UDecalInstance@olc@@@std@@@std@@QEAAPEAUDecalInstance@olc@@XZ
	?_Release@?$_Uninitialized_backout_al@V?$allocator@UGPUTask@olc@@@std@@@std@@QEAAPEAUGPUTask@olc@@XZ
	?_Release@?$_Uninitialized_backout_al@V?$allocator@ULayerDesc@olc@@@std@@@std@@QEAAPEAULayerDesc@olc@@XZ
	?_Release@?$_Uninitialized_backout_al@V?$allocator@UPixel@olc@@@std@@@std@@QEAAPEAUPixel@olc@@XZ
	?_Release@?$_Uninitialized_backout_al@V?$allocator@UVertex@GPUTask@olc@@@std@@@std@@QEAAPEAUVertex@GPUTask@olc@@XZ
	?_Release@?$_Uninitialized_backout_al@V?$allocator@V?$basic_string@DU?$char_traits@D@std@@V?$allocator@D@2@@std@@@std@@@std@@QEAAPEAV?$basic_string@DU?$char_traits@D@std@@V?$allocator@D@2@@2@XZ
	?_Release@_Basic_container_proxy_ptr12@std@@QEAAXXZ
	?_Reset_back@?$basic_filebuf@DU?$char_traits@D@std@@@std@@AEAAXXZ
	?_Reset_copy@?$_Func_class@UPixel@olc@@HHAEBU12@AEBU12@@std@@IEAAXAEBV12@@Z
	?_Reset_copy@?$_Func_class@X$$V@std@@IEAAXAEBV12@@Z
	?_Reset_move@?$_Func_class@UPixel@olc@@HHAEBU12@AEBU12@@std@@IEAAX$$QEAV12@@Z
	?_Reset_move@?$_Func_class@X$$V@std@@IEAAX$$QEAV12@@Z
	?_Rrotate@?$_Tree_val@U?$_Tree_simple_types@U?$pair@$$CBV?$basic_string@DU?$char_traits@D@std@@V?$allocator@D@2@@std@@UsResourceFile@ResourcePack@olc@@@std@@@std@@@std@@QEAAXPEAU?$_Tree_node@U?$pair@$$CBV?$basic_string@DU?$char_traits@D@std@@V?$allocator@D@2@@std@@UsResourceFile@ResourcePack@olc@@@std@@PEAX@2@@Z
	?_Rrotate@?$_Tree_val@U?$_Tree_simple_types@U?$pair@$$CB_KW4Key@olc@@@std@@@std@@@std@@QEAAXPEAU?$_Tree_node@U?$pair@$$CB_KW4Key@olc@@@std@@PEAX@2@@Z
	?_Seek_to@?$_Vector_const_iterator@V?$_Vector_val@U?$_Simple_types@PEAVPGEX@olc@@@std@@@std@@@std@@QEAAXPEBQEAVPGEX@olc@@@Z
	?_Seek_to@?$_Vector_const_iterator@V?$_Vector_val@U?$_Simple_types@UPixel@olc@@@std@@@std@@@std@@QEAAXPEBUPixel@olc@@@Z
	?_Set@?$_Func_class@UPixel@olc@@HHAEBU12@AEBU12@@std@@AEAAXPEAV?$_Func_base@UPixel@olc@@HHAEBU12@AEBU12@@2@@Z
	?_Set@?$_Func_class@X$$V@std@@AEAAXPEAV?$_Func_base@X$$V@2@@Z
	?_Set_back@?$basic_filebuf@DU?$char_traits@D@std@@@std@@AEAAXXZ
	?_Swap@?$_Func_class@UPixel@olc@@HHAEBU12@AEBU12@@std@@IEAAXAEAV12@@Z
	?_Swap@?$_Func_class@X$$V@std@@IEAAXAEAV12@@Z
	?_Swap_proxy_and_iterators@?$basic_string@DU?$char_traits@D@std@@V?$allocator@D@2@@std@@AEAAXAEAV12@@Z
	?_Swap_proxy_and_iterators@?$basic_string@_WU?$char_traits@_W@std@@V?$allocator@_W@2@@std@@AEAAXAEAV12@@Z
	?_Swap_proxy_and_iterators@_Container_base12@std@@QEAAXAEAU12@@Z
	?_Swap_proxy_and_iterators_locked@_Container_base12@std@@AEAAXAEAU12@@Z
	?_Swap_proxy_and_iterators_unlocked@_Container_base12@std@@AEAAXAEAU12@@Z
	?_Swap_val@?$_Vector_val@U?$_Simple_types@UPixel@olc@@@std@@@std@@QEAAXAEAV12@@Z
	?_Switch_to_buf@_Bxty@?$_String_val@U?$_Simple_types@D@std@@@std@@QEAAXXZ
	?_Switch_to_buf@_Bxty@?$_String_val@U?$_Simple_types@_W@std@@@std@@QEAAXXZ
	?_Take_contents@?$_Vector_val@U?$_Simple_types@UPixel@olc@@@std@@@std@@QEAAXAEAV12@@Z
	?_Take_contents@?$basic_string@DU?$char_traits@D@std@@V?$allocator@D@2@@std@@AEAAXAEAV12@@Z
	?_Take_contents@?$basic_string@_WU?$char_traits@_W@std@@V?$allocator@_W@2@@std@@AEAAXAEAV12@@Z
	?_Throw_bad_array_new_length@std@@YAXXZ
	?_Throw_bad_cast@std@@YAXXZ
	?_Throw_fs_error@filesystem@std@@YAXPEBDAEBVerror_code@2@AEBVpath@12@@Z
	?_Throw_fs_error@filesystem@std@@YAXPEBDW4__std_win_error@@AEBVpath@12@@Z
	?_Throw_system_error@std@@YAXW4errc@1@@Z
	?_Throw_system_error_from_std_win_error@std@@YAXW4__std_win_error@@@Z
	?_Throw_tree_length_error@std@@YAXXZ
	?_Tidy@?$_Func_class@UPixel@olc@@HHAEBU12@AEBU12@@std@@IEAAXXZ
	?_Tidy@?$_Func_class@X$$V@std@@IEAAXXZ
	?_Tidy@?$_Hash_vec@V?$allocator@V?$_List_unchecked_iterator@V?$_List_val@U?$_List_simple_types@U?$pair@$$CBW4Key@olc@@V?$tuple@V?$basic_string@DU?$char_traits@D@std@@V?$allocator@D@2@@std@@V12@V12@V12@@std@@@std@@@std@@@std@@@std@@@std@@@std@@QEAAXXZ
	?_Tidy@?$basic_stringbuf@DU?$char_traits@D@std@@V?$allocator@D@2@@std@@IEAAXXZ
	?_Tidy@?$list@U?$pair@$$CBW4Key@olc@@V?$tuple@V?$basic_string@DU?$char_traits@D@std@@V?$allocator@D@2@@std@@V12@V12@V12@@std@@@std@@V?$allocator@U?$pair@$$CBW4Key@olc@@V?$tuple@V?$basic_string@DU?$char_traits@D@std@@V?$allocator@D@2@@std@@V12@V12@V12@@std@@@std@@@2@@std@@AEAAXXZ
	?_Tidy@?$list@V?$basic_string@DU?$char_traits@D@std@@V?$allocator@D@2@@std@@V?$allocator@V?$basic_string@DU?$char_traits@D@std@@V?$allocator@D@2@@std@@@2@@std@@AEAAXXZ
	?_Tidy@?$vector@DV?$allocator@D@std@@@std@@AEAAXXZ
	?_Tidy@?$vector@EV?$allocator@E@std@@@std@@AEAAXXZ
	?_Tidy@?$vector@HV?$allocator@H@std@@@std@@AEAAXXZ
	?_Tidy@?$vector@MV?$allocator@M@std@@@std@@AEAAXXZ
	?_Tidy@?$vector@PEAVPGEX@olc@@V?$allocator@PEAVPGEX@olc@@@std@@@std@@AEAAXXZ
	?_Tidy@?$vector@PEAXV?$allocator@PEAX@std@@@std@@AEAAXXZ
	?_Tidy@?$vector@U?$v_2d@H@olc@@V?$allocator@U?$v_2d@H@olc@@@std@@@std@@AEAAXXZ
	?_Tidy@?$vector@U?$v_2d@M@olc@@V?$allocator@U?$v_2d@M@olc@@@std@@@std@@AEAAXXZ
	?_Tidy@?$vector@UDecalInstance@olc@@V?$allocator@UDecalInstance@olc@@@std@@@std@@AEAAXXZ
	?_Tidy@?$vector@UGPUTask@olc@@V?$allocator@UGPUTask@olc@@@std@@@std@@AEAAXXZ
	?_Tidy@?$vector@ULayerDesc@olc@@V?$allocator@ULayerDesc@olc@@@std@@@std@@AEAAXXZ
	?_Tidy@?$vector@UPixel@olc@@V?$allocator@UPixel@olc@@@std@@@std@@AEAAXXZ
	?_Tidy@?$vector@UVertex@GPUTask@olc@@V?$allocator@UVertex@GPUTask@olc@@@std@@@std@@AEAAXXZ
	?_Tidy@?$vector@V?$basic_string@DU?$char_traits@D@std@@V?$allocator@D@2@@std@@V?$allocator@V?$basic_string@DU?$char_traits@D@std@@V?$allocator@D@2@@std@@@2@@std@@AEAAXXZ
	?_Tidy_deallocate@?$basic_string@DU?$char_traits@D@std@@V?$allocator@D@2@@std@@AEAAXXZ
	?_Tidy_deallocate@?$basic_string@_WU?$char_traits@_W@std@@V?$allocator@_W@2@@std@@AEAAXXZ
	?_Transfer_before@?$_List_node_emplace_op2@V?$allocator@U?$_List_node@V?$basic_string@DU?$char_traits@D@std@@V?$allocator@D@2@@std@@PEAX@std@@@std@@@std@@QEAAPEAU?$_List_node@V?$basic_string@DU?$char_traits@D@std@@V?$allocator@D@2@@std@@PEAX@2@QEAU32@@Z
	?_Unchecked_begin@?$_Hash@V?$_Umap_traits@W4Key@olc@@V?$tuple@V?$basic_string@DU?$char_traits@D@std@@V?$allocator@D@2@@std@@V12@V12@V12@@std@@V?$_Uhash_compare@W4Key@olc@@U?$hash@W4Key@olc@@@std@@U?$equal_to@W4Key@olc@@@4@@4@V?$allocator@U?$pair@$$CBW4Key@olc@@V?$tuple@V?$basic_string@DU?$char_traits@D@std@@V?$allocator@D@2@@std@@V12@V12@V12@@std@@@std@@@4@$0A@@std@@@std@@QEAA?AV?$_List_unchecked_iterator@V?$_List_val@U?$_List_simple_types@U?$pair@$$CBW4Key@olc@@V?$tuple@V?$basic_string@DU?$char_traits@D@std@@V?$allocator@D@2@@std@@V12@V12@V12@@std@@@std@@@std@@@std@@@2@XZ
	?_Unchecked_begin@?$_Tree@V?$_Tmap_traits@V?$basic_string@DU?$char_traits@D@std@@V?$allocator@D@2@@std@@UsResourceFile@ResourcePack@olc@@U?$less@V?$basic_string@DU?$char_traits@D@std@@V?$allocator@D@2@@std@@@2@V?$allocator@U?$pair@$$CBV?$basic_string@DU?$char_traits@D@std@@V?$allocator@D@2@@std@@UsResourceFile@ResourcePack@olc@@@std@@@2@$0A@@std@@@std@@QEAA?AV?$_Tree_unchecked_iterator@V?$_Tree_val@U?$_Tree_simple_types@U?$pair@$$CBV?$basic_string@DU?$char_traits@D@std@@V?$allocator@D@2@@std@@UsResourceFile@ResourcePack@olc@@@std@@@std@@@std@@@2@XZ
	?_Unchecked_begin@?$array@E$0GA@@std@@QEBAPEBEXZ
	?_Unchecked_begin@?$basic_string@DU?$char_traits@D@std@@V?$allocator@D@2@@std@@QEBAPEBDXZ
	?_Unchecked_begin@?$list@U?$pair@$$CBW4Key@olc@@V?$tuple@V?$basic_string@DU?$char_traits@D@std@@V?$allocator@D@2@@std@@V12@V12@V12@@std@@@std@@V?$allocator@U?$pair@$$CBW4Key@olc@@V?$tuple@V?$basic_string@DU?$char_traits@D@std@@V?$allocator@D@2@@std@@V12@V12@V12@@std@@@std@@@2@@std@@QEAA?AV?$_List_unchecked_iterator@V?$_List_val@U?$_List_simple_types@U?$pair@$$CBW4Key@olc@@V?$tuple@V?$basic_string@DU?$char_traits@D@std@@V?$allocator@D@2@@std@@V12@V12@V12@@std@@@std@@@std@@@std@@@2@XZ
	?_Unchecked_begin@?$vector@DV?$allocator@D@std@@@std@@QEBAPEBDXZ
	?_Unchecked_begin@?$vector@HV?$allocator@H@std@@@std@@QEBAPEBHXZ
	?_Unchecked_begin@?$vector@PEAVPGEX@olc@@V?$allocator@PEAVPGEX@olc@@@std@@@std@@QEAAPEAPEAVPGEX@olc@@XZ
	?_Unchecked_begin@?$vector@UDecalInstance@olc@@V?$allocator@UDecalInstance@olc@@@std@@@std@@QEAAPEAUDecalInstance@olc@@XZ
	?_Unchecked_begin@?$vector@UGPUTask@olc@@V?$allocator@UGPUTask@olc@@@std@@@std@@QEAAPEAUGPUTask@olc@@XZ
	?_Unchecked_begin@?$vector@ULayerDesc@olc@@V?$allocator@ULayerDesc@olc@@@std@@@std@@QEAAPEAULayerDesc@olc@@XZ
	?_Unchecked_end@?$_Hash@V?$_Umap_traits@W4Key@olc@@V?$tuple@V?$basic_string@DU?$char_traits@D@std@@V?$allocator@D@2@@std@@V12@V12@V12@@std@@V?$_Uhash_compare@W4Key@olc@@U?$hash@W4Key@olc@@@std@@U?$equal_to@W4Key@olc@@@4@@4@V?$allocator@U?$pair@$$CBW4Key@olc@@V?$tuple@V?$basic_string@DU?$char_traits@D@std@@V?$allocator@D@2@@std@@V12@V12@V12@@std@@@std@@@4@$0A@@std@@@std@@QEAA?AV?$_List_unchecked_iterator@V?$_List_val@U?$_List_simple_types@U?$pair@$$CBW4Key@olc@@V?$tuple@V?$basic_string@DU?$char_traits@D@std@@V?$allocator@D@2@@std@@V12@V12@V12@@std@@@std@@@std@@@std@@@2@XZ
	?_Unchecked_end@?$_Tree@V?$_Tmap_traits@V?$basic_string@DU?$char_traits@D@std@@V?$allocator@D@2@@std@@UsResourceFile@ResourcePack@olc@@U?$less@V?$basic_string@DU?$char_traits@D@std@@V?$allocator@D@2@@std@@@2@V?$allocator@U?$pair@$$CBV?$basic_string@DU?$char_traits@D@std@@V?$allocator@D@2@@std@@UsResourceFile@ResourcePack@olc@@@std@@@2@$0A@@std@@@std@@QEBA?AU_Default_sentinel@2@XZ
	?_Unchecked_end@?$array@E$0GA@@std@@QEBAPEBEXZ
	?_Unchecked_end@?$basic_string@DU?$char_traits@D@std@@V?$allocator@D@2@@std@@QEBAPEBDXZ
	?_Unchecked_end@?$list@U?$pair@$$CBW4Key@olc@@V?$tuple@V?$basic_string@DU?$char_traits@D@std@@V?$allocator@D@2@@std@@V12@V12@V12@@std@@@std@@V?$allocator@U?$pair@$$CBW4Key@olc@@V?$tuple@V?$basic_string@DU?$char_traits@D@std@@V?$allocator@D@2@@std@@V12@V12@V12@@std@@@std@@@2@@std@@QEAA?AV?$_List_unchecked_iterator@V?$_List_val@U?$_List_simple_types@U?$pair@$$CBW4Key@olc@@V?$tuple@V?$basic_string@DU?$char_traits@D@std@@V?$allocator@D@2@@std@@V12@V12@V12@@std@@@std@@@std@@@std@@@2@XZ
	?_Unchecked_end@?$vector@DV?$allocator@D@std@@@std@@QEBAPEBDXZ
	?_Unchecked_end@?$vector@HV?$allocator@H@std@@@std@@QEBAPEBHXZ
	?_Unchecked_end@?$vector@PEAVPGEX@olc@@V?$allocator@PEAVPGEX@olc@@@std@@@std@@QEAAPEAPEAVPGEX@olc@@XZ
	?_Unchecked_end@?$vector@UDecalInstance@olc@@V?$allocator@UDecalInstance@olc@@@std@@@std@@QEAAPEAUDecalInstance@olc@@XZ
	?_Unchecked_end@?$vector@UGPUTask@olc@@V?$allocator@UGPUTask@olc@@@std@@@std@@QEAAPEAUGPUTask@olc@@XZ
	?_Unchecked_end@?$vector@ULayerDesc@olc@@V?$allocator@ULayerDesc@olc@@@std@@@std@@QEAAPEAULayerDesc@olc@@XZ
	?_Unchecked_erase@?$_Hash@V?$_Umap_traits@W4Key@olc@@V?$tuple@V?$basic_string@DU?$char_traits@D@std@@V?$allocator@D@2@@std@@V12@V12@V12@@std@@V?$_Uhash_compare@W4Key@olc@@U?$hash@W4Key@olc@@@std@@U?$equal_to@W4Key@olc@@@4@@4@V?$allocator@U?$pair@$$CBW4Key@olc@@V?$tuple@V?$basic_string@DU?$char_traits@D@std@@V?$allocator@D@2@@std@@V12@V12@V12@@std@@@std@@@4@$0A@@std@@@std@@AEAAPEAU?$_List_node@U?$pair@$$CBW4Key@olc@@V?$tuple@V?$basic_string@DU?$char_traits@D@std@@V?$allocator@D@2@@std@@V12@V12@V12@@std@@@std@@PEAX@2@PEAU32@QEAU32@@Z
	?_Unchecked_erase@?$list@U?$pair@$$CBW4Key@olc@@V?$tuple@V?$basic_string@DU?$char_traits@D@std@@V?$allocator@D@2@@std@@V12@V12@V12@@std@@@std@@V?$allocator@U?$pair@$$CBW4Key@olc@@V?$tuple@V?$basic_string@DU?$char_traits@D@std@@V?$allocator@D@2@@std@@V12@V12@V12@@std@@@std@@@2@@std@@AEAAPEAU?$_List_node@U?$pair@$$CBW4Key@olc@@V?$tuple@V?$basic_string@DU?$char_traits@D@std@@V?$allocator@D@2@@std@@V12@V12@V12@@std@@@std@@PEAX@2@PEAU32@QEAU32@@Z
	?_Unchecked_splice@?$_List_val@U?$_List_simple_types@U?$pair@$$CBW4Key@olc@@V?$tuple@V?$basic_string@DU?$char_traits@D@std@@V?$allocator@D@2@@std@@V12@V12@V12@@std@@@std@@@std@@@std@@SAPEAU?$_List_node@U?$pair@$$CBW4Key@olc@@V?$tuple@V?$basic_string@DU?$char_traits@D@std@@V?$allocator@D@2@@std@@V12@V12@V12@@std@@@std@@PEAX@2@QEAU32@00@Z
	?_Unlock@?$basic_filebuf@DU?$char_traits@D@std@@@std@@UEAAXXZ
	?_Unwrapped@?$_Array_const_iterator@U?$v_2d@M@olc@@$03@std@@QEBAPEBU?$v_2d@M@olc@@XZ
	?_Unwrapped@?$_Vector_const_iterator@V?$_Vector_val@U?$_Simple_types@UPixel@olc@@@std@@@std@@@std@@QEBAPEBUPixel@olc@@XZ
	?_Unwrapped@?$_Vector_iterator@V?$_Vector_val@U?$_Simple_types@PEAVPGEX@olc@@@std@@@std@@@std@@QEBAPEAPEAVPGEX@olc@@XZ
	?_Unwrapped@?$_Vector_iterator@V?$_Vector_val@U?$_Simple_types@UPixel@olc@@@std@@@std@@@std@@QEBAPEAUPixel@olc@@XZ
	?_Verify_offset@?$_Vector_const_iterator@V?$_Vector_val@U?$_Simple_types@UPixel@olc@@@std@@@std@@@std@@QEBAX_J@Z
	?_Verify_range@std@@YAXAEBV?$_Array_const_iterator@U?$v_2d@M@olc@@$03@1@0@Z
	?_Verify_range@std@@YAXAEBV?$_Vector_const_iterator@V?$_Vector_val@U?$_Simple_types@PEAVPGEX@olc@@@std@@@std@@@1@0@Z
	?_Verify_range@std@@YAXAEBV?$_Vector_const_iterator@V?$_Vector_val@U?$_Simple_types@UPixel@olc@@@std@@@std@@@1@0@Z
	?_Verify_with@?$_Array_const_iterator@U?$v_2d@M@olc@@$03@std@@QEBAXAEBV12@@Z
	?_Xlen_string@std@@YAXXZ
	?_Xlength@?$vector@DV?$allocator@D@std@@@std@@CAXXZ
	?_Xlength@?$vector@EV?$allocator@E@std@@@std@@CAXXZ
	?_Xlength@?$vector@HV?$allocator@H@std@@@std@@CAXXZ
	?_Xlength@?$vector@MV?$allocator@M@std@@@std@@CAXXZ
	?_Xlength@?$vector@PEAVPGEX@olc@@V?$allocator@PEAVPGEX@olc@@@std@@@std@@CAXXZ
	?_Xlength@?$vector@PEAXV?$allocator@PEAX@std@@@std@@CAXXZ
	?_Xlength@?$vector@U?$v_2d@H@olc@@V?$allocator@U?$v_2d@H@olc@@@std@@@std@@CAXXZ
	?_Xlength@?$vector@U?$v_2d@M@olc@@V?$allocator@U?$v_2d@M@olc@@@std@@@std@@CAXXZ
	?_Xlength@?$vector@UDecalInstance@olc@@V?$allocator@UDecalInstance@olc@@@std@@@std@@CAXXZ
	?_Xlength@?$vector@UGPUTask@olc@@V?$allocator@UGPUTask@olc@@@std@@@std@@CAXXZ
	?_Xlength@?$vector@ULayerDesc@olc@@V?$allocator@ULayerDesc@olc@@@std@@@std@@CAXXZ
	?_Xlength@?$vector@UPixel@olc@@V?$allocator@UPixel@olc@@@std@@@std@@CAXXZ
	?_Xlength@?$vector@UVertex@GPUTask@olc@@V?$allocator@UVertex@GPUTask@olc@@@std@@@std@@CAXXZ
	?_Xlength@?$vector@V?$basic_string@DU?$char_traits@D@std@@V?$allocator@D@2@@std@@V?$allocator@V?$basic_string@DU?$char_traits@D@std@@V?$allocator@D@2@@std@@@2@@std@@CAXXZ
	?_Xran@?$_String_val@U?$_Simple_types@D@std@@@std@@SAXXZ
	?__empty_global_delete@@YAXPEAX@Z
	?__empty_global_delete@@YAXPEAXW4align_val_t@std@@@Z
	?__empty_global_delete@@YAXPEAX_K@Z
	?__empty_global_delete@@YAXPEAX_KW4align_val_t@std@@@Z
	?adv_FlushLayer@PixelGameEngine@olc@@QEAAX_K@Z
	?adv_FlushLayerDecals@PixelGameEngine@olc@@QEAAX_K@Z
	?adv_FlushLayerGPUTasks@PixelGameEngine@olc@@QEAAX_K@Z
	?adv_HardwareClip@PixelGameEngine@olc@@QEAAX_NAEBU?$v_2d@H@2@10@Z
	?adv_ManualRenderEnable@PixelGameEngine@olc@@QEAAX_N@Z
	?allocate@?$allocator@D@std@@QEAAPEAD_K@Z
	?allocate@?$allocator@E@std@@QEAAPEAE_K@Z
	?allocate@?$allocator@H@std@@QEAAPEAH_K@Z
	?allocate@?$allocator@M@std@@QEAAPEAM_K@Z
	?allocate@?$allocator@PEAVPGEX@olc@@@std@@QEAAPEAPEAVPGEX@olc@@_K@Z
	?allocate@?$allocator@PEAX@std@@QEAAPEAPEAX_K@Z
	?allocate@?$allocator@U?$_List_node@U?$pair@$$CBW4Key@olc@@V?$tuple@V?$basic_string@DU?$char_traits@D@std@@V?$allocator@D@2@@std@@V12@V12@V12@@std@@@std@@PEAX@std@@@std@@QEAAPEAU?$_List_node@U?$pair@$$CBW4Key@olc@@V?$tuple@V?$basic_string@DU?$char_traits@D@std@@V?$allocator@D@2@@std@@V12@V12@V12@@std@@@std@@PEAX@2@_K@Z
	?allocate@?$allocator@U?$_List_node@V?$basic_string@DU?$char_traits@D@std@@V?$allocator@D@2@@std@@PEAX@std@@@std@@QEAAPEAU?$_List_node@V?$basic_string@DU?$char_traits@D@std@@V?$allocator@D@2@@std@@PEAX@2@_K@Z
	?allocate@?$allocator@U?$_Tree_node@U?$pair@$$CBV?$basic_string@DU?$char_traits@D@std@@V?$allocator@D@2@@std@@UsResourceFile@ResourcePack@olc@@@std@@PEAX@std@@@std@@QEAAPEAU?$_Tree_node@U?$pair@$$CBV?$basic_string@DU?$char_traits@D@std@@V?$allocator@D@2@@std@@UsResourceFile@ResourcePack@olc@@@std@@PEAX@2@_K@Z
	?allocate@?$allocator@U?$_Tree_node@U?$pair@$$CB_KW4Key@olc@@@std@@PEAX@std@@@std@@QEAAPEAU?$_Tree_node@U?$pair@$$CB_KW4Key@olc@@@std@@PEAX@2@_K@Z
	?allocate@?$allocator@U?$v_2d@H@olc@@@std@@QEAAPEAU?$v_2d@H@olc@@_K@Z
	?allocate@?$allocator@U?$v_2d@M@olc@@@std@@QEAAPEAU?$v_2d@M@olc@@_K@Z
	?allocate@?$allocator@UDecalInstance@olc@@@std@@QEAAPEAUDecalInstance@olc@@_K@Z
	?allocate@?$allocator@UGPUTask@olc@@@std@@QEAAPEAUGPUTask@olc@@_K@Z
	?allocate@?$allocator@ULayerDesc@olc@@@std@@QEAAPEAULayerDesc@olc@@_K@Z
	?allocate@?$allocator@UPixel@olc@@@std@@QEAAPEAUPixel@olc@@_K@Z
	?allocate@?$allocator@UVertex@GPUTask@olc@@@std@@QEAAPEAUVertex@GPUTask@olc@@_K@Z
	?allocate@?$allocator@U_Container_proxy@std@@@std@@QEAAPEAU_Container_proxy@2@_K@Z
	?allocate@?$allocator@V?$_List_unchecked_iterator@V?$_List_val@U?$_List_simple_types@U?$pair@$$CBW4Key@olc@@V?$tuple@V?$basic_string@DU?$char_traits@D@std@@V?$allocator@D@2@@std@@V12@V12@V12@@std@@@std@@@std@@@std@@@std@@@std@@QEAAPEAV?$_List_unchecked_iterator@V?$_List_val@U?$_List_simple_types@U?$pair@$$CBW4Key@olc@@V?$tuple@V?$basic_string@DU?$char_traits@D@std@@V?$allocator@D@2@@std@@V12@V12@V12@@std@@@std@@@std@@@std@@@2@_K@Z
	?allocate@?$allocator@V?$basic_string@DU?$char_traits@D@std@@V?$allocator@D@2@@std@@@std@@QEAAPEAV?$basic_string@DU?$char_traits@D@std@@V?$allocator@D@2@@2@_K@Z
	?allocate@?$allocator@_W@std@@QEAAPEA_W_K@Z
	?append@?$basic_string@DU?$char_traits@D@std@@V?$allocator@D@2@@std@@QEAAAEAV12@AEBV12@@Z
	?append@?$basic_string@DU?$char_traits@D@std@@V?$allocator@D@2@@std@@QEAAAEAV12@QEBD@Z
	?append@?$basic_string@DU?$char_traits@D@std@@V?$allocator@D@2@@std@@QEAAAEAV12@_KD@Z
	?append@?$basic_string@_WU?$char_traits@_W@std@@V?$allocator@_W@2@@std@@QEAAAEAV12@_K_W@Z
	?assign@?$_Narrow_char_traits@DH@std@@SAPEADQEAD_KD@Z
	?assign@?$_Narrow_char_traits@DH@std@@SAXAEADAEBD@Z
	?assign@?$_WChar_traits@_W@std@@SAPEA_WQEA_W_K_W@Z
	?assign@?$_WChar_traits@_W@std@@SAXAEA_WAEB_W@Z
	?assign@?$basic_string@DU?$char_traits@D@std@@V?$allocator@D@2@@std@@QEAAAEAV12@QEBD@Z
	?assign@?$basic_string@DU?$char_traits@D@std@@V?$allocator@D@2@@std@@QEAAAEAV12@QEBD_K@Z
	?at@?$map@_KW4Key@olc@@U?$less@_K@std@@V?$allocator@U?$pair@$$CB_KW4Key@olc@@@std@@@4@@std@@QEAAAEAW4Key@olc@@AEB_K@Z
	?at@?$unordered_map@W4Key@olc@@V?$tuple@V?$basic_string@DU?$char_traits@D@std@@V?$allocator@D@2@@std@@V12@V12@V12@@std@@U?$hash@W4Key@olc@@@4@U?$equal_to@W4Key@olc@@@4@V?$allocator@U?$pair@$$CBW4Key@olc@@V?$tuple@V?$basic_string@DU?$char_traits@D@std@@V?$allocator@D@2@@std@@V12@V12@V12@@std@@@std@@@4@@std@@QEBAAEBV?$tuple@V?$basic_string@DU?$char_traits@D@std@@V?$allocator@D@2@@std@@V12@V12@V12@@2@AEBW4Key@olc@@@Z
	?begin@?$array@U?$v_2d@M@olc@@$03@std@@QEBA?AV?$_Array_const_iterator@U?$v_2d@M@olc@@$03@2@XZ
	?begin@?$initializer_list@M@std@@QEBAPEBMXZ
	?begin@?$initializer_list@PEAX@std@@QEBAPEBQEAXXZ
	?begin@?$initializer_list@U?$pair@$$CBW4Key@olc@@V?$tuple@V?$basic_string@DU?$char_traits@D@std@@V?$allocator@D@2@@std@@V12@V12@V12@@std@@@std@@@std@@QEBAPEBU?$pair@$$CBW4Key@olc@@V?$tuple@V?$basic_string@DU?$char_traits@D@std@@V?$allocator@D@2@@std@@V12@V12@V12@@std@@@2@XZ
	?begin@?$initializer_list@U?$v_2d@M@olc@@@std@@QEBAPEBU?$v_2d@M@olc@@XZ
	?begin@?$initializer_list@UPixel@olc@@@std@@QEBAPEBUPixel@olc@@XZ
	?begin@?$initializer_list@UVertex@GPUTask@olc@@@std@@QEBAPEBUVertex@GPUTask@olc@@XZ
	?begin@?$list@V?$basic_string@DU?$char_traits@D@std@@V?$allocator@D@2@@std@@V?$allocator@V?$basic_string@DU?$char_traits@D@std@@V?$allocator@D@2@@std@@@2@@std@@QEAA?AV?$_List_iterator@V?$_List_val@U?$_List_simple_types@V?$basic_string@DU?$char_traits@D@std@@V?$allocator@D@2@@std@@@std@@@std@@@2@XZ
	?begin@?$vector@PEAVPGEX@olc@@V?$allocator@PEAVPGEX@olc@@@std@@@std@@QEAA?AV?$_Vector_iterator@V?$_Vector_val@U?$_Simple_types@PEAVPGEX@olc@@@std@@@std@@@2@XZ
	?begin@?$vector@ULayerDesc@olc@@V?$allocator@ULayerDesc@olc@@@std@@@std@@QEAA?AV?$_Vector_iterator@V?$_Vector_val@U?$_Simple_types@ULayerDesc@olc@@@std@@@std@@@2@XZ
	?begin@?$vector@UPixel@olc@@V?$allocator@UPixel@olc@@@std@@@std@@QEAA?AV?$_Vector_iterator@V?$_Vector_val@U?$_Simple_types@UPixel@olc@@@std@@@std@@@2@XZ
	?begin@?$vector@UPixel@olc@@V?$allocator@UPixel@olc@@@std@@@std@@QEBA?AV?$_Vector_const_iterator@V?$_Vector_val@U?$_Simple_types@UPixel@olc@@@std@@@std@@@2@XZ
	?bucket@?$_Hash@V?$_Umap_traits@W4Key@olc@@V?$tuple@V?$basic_string@DU?$char_traits@D@std@@V?$allocator@D@2@@std@@V12@V12@V12@@std@@V?$_Uhash_compare@W4Key@olc@@U?$hash@W4Key@olc@@@std@@U?$equal_to@W4Key@olc@@@4@@4@V?$allocator@U?$pair@$$CBW4Key@olc@@V?$tuple@V?$basic_string@DU?$char_traits@D@std@@V?$allocator@D@2@@std@@V12@V12@V12@@std@@@std@@@4@$0A@@std@@@std@@QEBA_KAEBW4Key@olc@@@Z
	?bucket_count@?$_Hash@V?$_Umap_traits@W4Key@olc@@V?$tuple@V?$basic_string@DU?$char_traits@D@std@@V?$allocator@D@2@@std@@V12@V12@V12@@std@@V?$_Uhash_compare@W4Key@olc@@U?$hash@W4Key@olc@@@std@@U?$equal_to@W4Key@olc@@@4@@4@V?$allocator@U?$pair@$$CBW4Key@olc@@V?$tuple@V?$basic_string@DU?$char_traits@D@std@@V?$allocator@D@2@@std@@V12@V12@V12@@std@@@std@@@4@$0A@@std@@@std@@QEBA_KXZ
	?c_str@?$basic_string@DU?$char_traits@D@std@@V?$allocator@D@2@@std@@QEBAPEBDXZ
	?c_str@?$basic_string@_WU?$char_traits@_W@std@@V?$allocator@_W@2@@std@@QEBAPEB_WXZ
	?c_str@path@filesystem@std@@QEBAPEB_WXZ
	?capacity@?$_Hash_vec@V?$allocator@V?$_List_unchecked_iterator@V?$_List_val@U?$_List_simple_types@U?$pair@$$CBW4Key@olc@@V?$tuple@V?$basic_string@DU?$char_traits@D@std@@V?$allocator@D@2@@std@@V12@V12@V12@@std@@@std@@@std@@@std@@@std@@@std@@@std@@QEBA_KXZ
	?capacity@?$vector@DV?$allocator@D@std@@@std@@QEBA_KXZ
	?capacity@?$vector@HV?$allocator@H@std@@@std@@QEBA_KXZ
	?capacity@?$vector@MV?$allocator@M@std@@@std@@QEBA_KXZ
	?capacity@?$vector@PEAVPGEX@olc@@V?$allocator@PEAVPGEX@olc@@@std@@@std@@QEBA_KXZ
	?capacity@?$vector@U?$v_2d@H@olc@@V?$allocator@U?$v_2d@H@olc@@@std@@@std@@QEBA_KXZ
	?capacity@?$vector@U?$v_2d@M@olc@@V?$allocator@U?$v_2d@M@olc@@@std@@@std@@QEBA_KXZ
	?capacity@?$vector@UDecalInstance@olc@@V?$allocator@UDecalInstance@olc@@@std@@@std@@QEBA_KXZ
	?capacity@?$vector@UGPUTask@olc@@V?$allocator@UGPUTask@olc@@@std@@@std@@QEBA_KXZ
	?capacity@?$vector@ULayerDesc@olc@@V?$allocator@ULayerDesc@olc@@@std@@@std@@QEBA_KXZ
	?capacity@?$vector@UPixel@olc@@V?$allocator@UPixel@olc@@@std@@@std@@QEBA_KXZ
	?capacity@?$vector@UVertex@GPUTask@olc@@V?$allocator@UVertex@GPUTask@olc@@@std@@@std@@QEBA_KXZ
	?capacity@?$vector@V?$basic_string@DU?$char_traits@D@std@@V?$allocator@D@2@@std@@V?$allocator@V?$basic_string@DU?$char_traits@D@std@@V?$allocator@D@2@@std@@@2@@std@@QEBA_KXZ
	?category@error_code@std@@QEBAAEBVerror_category@2@XZ
	?category@error_condition@std@@QEBAAEBVerror_category@2@XZ
	?ceil@?$v_2d@M@olc@@QEBA?AU12@XZ
	?ceil@@YAMM@Z
	?clear@?$_Hash@V?$_Umap_traits@W4Key@olc@@V?$tuple@V?$basic_string@DU?$char_traits@D@std@@V?$allocator@D@2@@std@@V12@V12@V12@@std@@V?$_Uhash_compare@W4Key@olc@@U?$hash@W4Key@olc@@@std@@U?$equal_to@W4Key@olc@@@4@@4@V?$allocator@U?$pair@$$CBW4Key@olc@@V?$tuple@V?$basic_string@DU?$char_traits@D@std@@V?$allocator@D@2@@std@@V12@V12@V12@@std@@@std@@@4@$0A@@std@@@std@@QEAAXXZ
	?clear@?$basic_string@DU?$char_traits@D@std@@V?$allocator@D@2@@std@@QEAAXXZ
	?clear@?$list@U?$pair@$$CBW4Key@olc@@V?$tuple@V?$basic_string@DU?$char_traits@D@std@@V?$allocator@D@2@@std@@V12@V12@V12@@std@@@std@@V?$allocator@U?$pair@$$CBW4Key@olc@@V?$tuple@V?$basic_string@DU?$char_traits@D@std@@V?$allocator@D@2@@std@@V12@V12@V12@@std@@@std@@@2@@std@@QEAAXXZ
	?clear@?$vector@HV?$allocator@H@std@@@std@@QEAAXXZ
	?clear@?$vector@UDecalInstance@olc@@V?$allocator@UDecalInstance@olc@@@std@@@std@@QEAAXXZ
	?clear@?$vector@UGPUTask@olc@@V?$allocator@UGPUTask@olc@@@std@@@std@@QEAAXXZ
	?clear@?$vector@UPixel@olc@@V?$allocator@UPixel@olc@@@std@@@std@@QEAAXXZ
	?clear@?$vector@V?$basic_string@DU?$char_traits@D@std@@V?$allocator@D@2@@std@@V?$allocator@V?$basic_string@DU?$char_traits@D@std@@V?$allocator@D@2@@std@@@2@@std@@QEAAXXZ
	?clear@error_code@std@@QEAAXXZ
	?close@?$basic_filebuf@DU?$char_traits@D@std@@@std@@QEAAPEAV12@XZ
	?close@?$basic_ifstream@DU?$char_traits@D@std@@@std@@QEAAXXZ
	?close@?$basic_ofstream@DU?$char_traits@D@std@@@std@@QEAAXXZ
	?compare@?$_Narrow_char_traits@DH@std@@SAHQEBD0_K@Z
	?compare@?$basic_string@DU?$char_traits@D@std@@V?$allocator@D@2@@std@@QEBAHAEBV12@@Z
	?copy@?$_Char_traits@DH@std@@SAPEADQEADQEBD_K@Z
	?copy@?$_Char_traits@_WG@std@@SAPEA_WQEA_WQEB_W_K@Z
	?cos@@YAMM@Z
	?count@?$_Hash@V?$_Umap_traits@W4Key@olc@@V?$tuple@V?$basic_string@DU?$char_traits@D@std@@V?$allocator@D@2@@std@@V12@V12@V12@@std@@V?$_Uhash_compare@W4Key@olc@@U?$hash@W4Key@olc@@@std@@U?$equal_to@W4Key@olc@@@4@@4@V?$allocator@U?$pair@$$CBW4Key@olc@@V?$tuple@V?$basic_string@DU?$char_traits@D@std@@V?$allocator@D@2@@std@@V12@V12@V12@@std@@@std@@@4@$0A@@std@@@std@@QEBA_KAEBW4Key@olc@@@Z
	?count@?$_Tree@V?$_Tmap_traits@_KW4Key@olc@@U?$less@_K@std@@V?$allocator@U?$pair@$$CB_KW4Key@olc@@@std@@@4@$0A@@std@@@std@@QEBA_KAEB_K@Z
	?count@?$duration@MU?$ratio@$00$00@std@@@chrono@std@@QEBAMXZ
	?count@?$duration@_JU?$ratio@$00$0DLJKMKAA@@std@@@chrono@std@@QEBA_JXZ
	?count@?$duration@_JU?$ratio@$00$0DOI@@std@@@chrono@std@@QEBA_JXZ
	?count@?$duration@_JU?$ratio@$00$0JIJGIA@@std@@@chrono@std@@QEBA_JXZ
	?data@?$array@M$0BA@@std@@QEAAPEAMXZ
	?data@?$array@M$0BA@@std@@QEBAPEBMXZ
	?data@?$array@U?$v_2d@M@olc@@$03@std@@QEAAPEAU?$v_2d@M@olc@@XZ
	?data@?$array@U?$v_2d@M@olc@@$03@std@@QEBAPEBU?$v_2d@M@olc@@XZ
	?data@?$array@UPixel@olc@@$03@std@@QEAAPEAUPixel@olc@@XZ
	?data@?$basic_string@DU?$char_traits@D@std@@V?$allocator@D@2@@std@@QEAAPEADXZ
	?data@?$basic_string@DU?$char_traits@D@std@@V?$allocator@D@2@@std@@QEBAPEBDXZ
	?data@?$basic_string@_WU?$char_traits@_W@std@@V?$allocator@_W@2@@std@@QEAAPEA_WXZ
	?data@?$basic_string_view@DU?$char_traits@D@std@@@std@@QEBAPEBDXZ
	?data@?$basic_string_view@_WU?$char_traits@_W@std@@@std@@QEBAPEB_WXZ
	?data@?$vector@DV?$allocator@D@std@@@std@@QEAAPEADXZ
	?data@?$vector@EV?$allocator@E@std@@@std@@QEAAPEAEXZ
	?data@?$vector@UPixel@olc@@V?$allocator@UPixel@olc@@@std@@@std@@QEAAPEAUPixel@olc@@XZ
	?deallocate@?$_Default_allocator_traits@V?$allocator@U?$_List_node@U?$pair@$$CBW4Key@olc@@V?$tuple@V?$basic_string@DU?$char_traits@D@std@@V?$allocator@D@2@@std@@V12@V12@V12@@std@@@std@@PEAX@std@@@std@@@std@@SAXAEAV?$allocator@U?$_List_node@U?$pair@$$CBW4Key@olc@@V?$tuple@V?$basic_string@DU?$char_traits@D@std@@V?$allocator@D@2@@std@@V12@V12@V12@@std@@@std@@PEAX@std@@@2@QEAU?$_List_node@U?$pair@$$CBW4Key@olc@@V?$tuple@V?$basic_string@DU?$char_traits@D@std@@V?$allocator@D@2@@std@@V12@V12@V12@@std@@@std@@PEAX@2@_K@Z
	?deallocate@?$_Default_allocator_traits@V?$allocator@U?$_List_node@V?$basic_string@DU?$char_traits@D@std@@V?$allocator@D@2@@std@@PEAX@std@@@std@@@std@@SAXAEAV?$allocator@U?$_List_node@V?$basic_string@DU?$char_traits@D@std@@V?$allocator@D@2@@std@@PEAX@std@@@2@QEAU?$_List_node@V?$basic_string@DU?$char_traits@D@std@@V?$allocator@D@2@@std@@PEAX@2@_K@Z
	?deallocate@?$_Default_allocator_traits@V?$allocator@U?$_Tree_node@U?$pair@$$CBV?$basic_string@DU?$char_traits@D@std@@V?$allocator@D@2@@std@@UsResourceFile@ResourcePack@olc@@@std@@PEAX@std@@@std@@@std@@SAXAEAV?$allocator@U?$_Tree_node@U?$pair@$$CBV?$basic_string@DU?$char_traits@D@std@@V?$allocator@D@2@@std@@UsResourceFile@ResourcePack@olc@@@std@@PEAX@std@@@2@QEAU?$_Tree_node@U?$pair@$$CBV?$basic_string@DU?$char_traits@D@std@@V?$allocator@D@2@@std@@UsResourceFile@ResourcePack@olc@@@std@@PEAX@2@_K@Z
	?deallocate@?$_Default_allocator_traits@V?$allocator@U?$_Tree_node@U?$pair@$$CB_KW4Key@olc@@@std@@PEAX@std@@@std@@@std@@SAXAEAV?$allocator@U?$_Tree_node@U?$pair@$$CB_KW4Key@olc@@@std@@PEAX@std@@@2@QEAU?$_Tree_node@U?$pair@$$CB_KW4Key@olc@@@std@@PEAX@2@_K@Z
	?deallocate@?$_Default_allocator_traits@V?$allocator@U_Container_proxy@std@@@std@@@std@@SAXAEAV?$allocator@U_Container_proxy@std@@@2@QEAU_Container_proxy@2@_K@Z
	?deallocate@?$allocator@D@std@@QEAAXQEAD_K@Z
	?deallocate@?$allocator@E@std@@QEAAXQEAE_K@Z
	?deallocate@?$allocator@H@std@@QEAAXQEAH_K@Z
	?deallocate@?$allocator@M@std@@QEAAXQEAM_K@Z
	?deallocate@?$allocator@PEAVPGEX@olc@@@std@@QEAAXQEAPEAVPGEX@olc@@_K@Z
	?deallocate@?$allocator@PEAX@std@@QEAAXQEAPEAX_K@Z
	?deallocate@?$allocator@U?$_List_node@U?$pair@$$CBW4Key@olc@@V?$tuple@V?$basic_string@DU?$char_traits@D@std@@V?$allocator@D@2@@std@@V12@V12@V12@@std@@@std@@PEAX@std@@@std@@QEAAXQEAU?$_List_node@U?$pair@$$CBW4Key@olc@@V?$tuple@V?$basic_string@DU?$char_traits@D@std@@V?$allocator@D@2@@std@@V12@V12@V12@@std@@@std@@PEAX@2@_K@Z
	?deallocate@?$allocator@U?$_List_node@V?$basic_string@DU?$char_traits@D@std@@V?$allocator@D@2@@std@@PEAX@std@@@std@@QEAAXQEAU?$_List_node@V?$basic_string@DU?$char_traits@D@std@@V?$allocator@D@2@@std@@PEAX@2@_K@Z
	?deallocate@?$allocator@U?$_Tree_node@U?$pair@$$CBV?$basic_string@DU?$char_traits@D@std@@V?$allocator@D@2@@std@@UsResourceFile@ResourcePack@olc@@@std@@PEAX@std@@@std@@QEAAXQEAU?$_Tree_node@U?$pair@$$CBV?$basic_string@DU?$char_traits@D@std@@V?$allocator@D@2@@std@@UsResourceFile@ResourcePack@olc@@@std@@PEAX@2@_K@Z
	?deallocate@?$allocator@U?$_Tree_node@U?$pair@$$CB_KW4Key@olc@@@std@@PEAX@std@@@std@@QEAAXQEAU?$_Tree_node@U?$pair@$$CB_KW4Key@olc@@@std@@PEAX@2@_K@Z
	?deallocate@?$allocator@U?$v_2d@H@olc@@@std@@QEAAXQEAU?$v_2d@H@olc@@_K@Z
	?deallocate@?$allocator@U?$v_2d@M@olc@@@std@@QEAAXQEAU?$v_2d@M@olc@@_K@Z
	?deallocate@?$allocator@UDecalInstance@olc@@@std@@QEAAXQEAUDecalInstance@olc@@_K@Z
	?deallocate@?$allocator@UGPUTask@olc@@@std@@QEAAXQEAUGPUTask@olc@@_K@Z
	?deallocate@?$allocator@ULayerDesc@olc@@@std@@QEAAXQEAULayerDesc@olc@@_K@Z
	?deallocate@?$allocator@UPixel@olc@@@std@@QEAAXQEAUPixel@olc@@_K@Z
	?deallocate@?$allocator@UVertex@GPUTask@olc@@@std@@QEAAXQEAUVertex@GPUTask@olc@@_K@Z
	?deallocate@?$allocator@V?$_List_unchecked_iterator@V?$_List_val@U?$_List_simple_types@U?$pair@$$CBW4Key@olc@@V?$tuple@V?$basic_string@DU?$char_traits@D@std@@V?$allocator@D@2@@std@@V12@V12@V12@@std@@@std@@@std@@@std@@@std@@@std@@QEAAXQEAV?$_List_unchecked_iterator@V?$_List_val@U?$_List_simple_types@U?$pair@$$CBW4Key@olc@@V?$tuple@V?$basic_string@DU?$char_traits@D@std@@V?$allocator@D@2@@std@@V12@V12@V12@@std@@@std@@@std@@@std@@@2@_K@Z
	?deallocate@?$allocator@V?$basic_string@DU?$char_traits@D@std@@V?$allocator@D@2@@std@@@std@@QEAAXQEAV?$basic_string@DU?$char_traits@D@std@@V?$allocator@D@2@@2@_K@Z
	?deallocate@?$allocator@_W@std@@QEAAXQEA_W_K@Z
	?default_error_condition@_System_error_category@std@@UEBA?AVerror_condition@2@H@Z
	?default_error_condition@error_category@std@@UEBA?AVerror_condition@2@H@Z
	?empty@?$basic_string@DU?$char_traits@D@std@@V?$allocator@D@2@@std@@QEBA_NXZ
	?empty@?$basic_string_view@DU?$char_traits@D@std@@@std@@QEBA_NXZ
	?empty@?$basic_string_view@_WU?$char_traits@_W@std@@@std@@QEBA_NXZ
	?empty@?$list@V?$basic_string@DU?$char_traits@D@std@@V?$allocator@D@2@@std@@V?$allocator@V?$basic_string@DU?$char_traits@D@std@@V?$allocator@D@2@@std@@@2@@std@@QEBA_NXZ
	?empty@?$vector@ULayerDesc@olc@@V?$allocator@ULayerDesc@olc@@@std@@@std@@QEBA_NXZ
	?end@?$array@U?$v_2d@M@olc@@$03@std@@QEBA?AV?$_Array_const_iterator@U?$v_2d@M@olc@@$03@2@XZ
	?end@?$initializer_list@PEAX@std@@QEBAPEBQEAXXZ
	?end@?$initializer_list@U?$pair@$$CBW4Key@olc@@V?$tuple@V?$basic_string@DU?$char_traits@D@std@@V?$allocator@D@2@@std@@V12@V12@V12@@std@@@std@@@std@@QEBAPEBU?$pair@$$CBW4Key@olc@@V?$tuple@V?$basic_string@DU?$char_traits@D@std@@V?$allocator@D@2@@std@@V12@V12@V12@@std@@@2@XZ
	?end@?$initializer_list@U?$v_2d@M@olc@@@std@@QEBAPEBU?$v_2d@M@olc@@XZ
	?end@?$initializer_list@UPixel@olc@@@std@@QEBAPEBUPixel@olc@@XZ
	?end@?$list@V?$basic_string@DU?$char_traits@D@std@@V?$allocator@D@2@@std@@V?$allocator@V?$basic_string@DU?$char_traits@D@std@@V?$allocator@D@2@@std@@@2@@std@@QEAA?AV?$_List_iterator@V?$_List_val@U?$_List_simple_types@V?$basic_string@DU?$char_traits@D@std@@V?$allocator@D@2@@std@@@std@@@std@@@2@XZ
	?end@?$vector@PEAVPGEX@olc@@V?$allocator@PEAVPGEX@olc@@@std@@@std@@QEAA?AV?$_Vector_iterator@V?$_Vector_val@U?$_Simple_types@PEAVPGEX@olc@@@std@@@std@@@2@XZ
	?end@?$vector@ULayerDesc@olc@@V?$allocator@ULayerDesc@olc@@@std@@@std@@QEAA?AV?$_Vector_iterator@V?$_Vector_val@U?$_Simple_types@ULayerDesc@olc@@@std@@@std@@@2@XZ
	?end@?$vector@UPixel@olc@@V?$allocator@UPixel@olc@@@std@@@std@@QEBA?AV?$_Vector_const_iterator@V?$_Vector_val@U?$_Simple_types@UPixel@olc@@@std@@@std@@@2@XZ
	?eof@?$_Narrow_char_traits@DH@std@@SAHXZ
	?eq@?$_Narrow_char_traits@DH@std@@SA_NDD@Z
	?eq_int_type@?$_Narrow_char_traits@DH@std@@SA_NHH@Z
	?equivalent@error_category@std@@UEBA_NAEBVerror_code@2@H@Z
	?equivalent@error_category@std@@UEBA_NHAEBVerror_condition@2@@Z
	?erase@?$basic_string@DU?$char_traits@D@std@@V?$allocator@D@2@@std@@QEAAAEAV12@_K0@Z
	?exists@filesystem@std@@YA_NAEBVpath@12@@Z
	?exists@filesystem@std@@YA_NAEBVpath@12@AEAVerror_code@2@@Z
	?file_size@filesystem@std@@YA_KAEBVpath@12@@Z
	?floor@?$v_2d@M@olc@@QEBA?AU12@XZ
	?floor@@YAMM@Z
	?front@?$basic_string@DU?$char_traits@D@std@@V?$allocator@D@2@@std@@QEAAAEADXZ
	?generic_category@std@@YAAEBVerror_category@1@XZ
	?get@?$unique_ptr@V?$tuple@P8PixelGameEngine@olc@@EAAXXZPEAV12@@std@@U?$default_delete@V?$tuple@P8PixelGameEngine@olc@@EAAXXZPEAV12@@std@@@2@@std@@QEBAPEAV?$tuple@P8PixelGameEngine@olc@@EAAXXZPEAV12@@2@XZ
	?get@?$unique_ptr@VDecal@olc@@U?$default_delete@VDecal@olc@@@std@@@std@@QEBAPEAVDecal@olc@@XZ
	?get@?$unique_ptr@VSprite@olc@@U?$default_delete@VSprite@olc@@@std@@@std@@QEBAPEAVSprite@olc@@XZ
	?get_deleter@?$unique_ptr@VDecal@olc@@U?$default_delete@VDecal@olc@@@std@@@std@@QEAAAEAU?$default_delete@VDecal@olc@@@2@XZ
	?get_deleter@?$unique_ptr@VSprite@olc@@U?$default_delete@VSprite@olc@@@std@@@std@@QEAAAEAU?$default_delete@VSprite@olc@@@2@XZ
	?imbue@?$basic_filebuf@DU?$char_traits@D@std@@@std@@MEAAXAEBVlocale@2@@Z
	?insert@?$_Hash@V?$_Umap_traits@W4Key@olc@@V?$tuple@V?$basic_string@DU?$char_traits@D@std@@V?$allocator@D@2@@std@@V12@V12@V12@@std@@V?$_Uhash_compare@W4Key@olc@@U?$hash@W4Key@olc@@@std@@U?$equal_to@W4Key@olc@@@4@@4@V?$allocator@U?$pair@$$CBW4Key@olc@@V?$tuple@V?$basic_string@DU?$char_traits@D@std@@V?$allocator@D@2@@std@@V12@V12@V12@@std@@@std@@@4@$0A@@std@@@std@@QEAAXV?$initializer_list@U?$pair@$$CBW4Key@olc@@V?$tuple@V?$basic_string@DU?$char_traits@D@std@@V?$allocator@D@2@@std@@V12@V12@V12@@std@@@std@@@2@@Z
	?insert@?$basic_string@DU?$char_traits@D@std@@V?$allocator@D@2@@std@@QEAAAEAV12@_KAEBV12@@Z
	?inv@Pixel@olc@@QEBA?AU12@XZ
	?is_open@?$basic_filebuf@DU?$char_traits@D@std@@@std@@QEBA_NXZ
	?is_open@?$basic_ifstream@DU?$char_traits@D@std@@@std@@QEBA_NXZ
	?is_open@?$basic_ofstream@DU?$char_traits@D@std@@@std@@QEBA_NXZ
	?join@thread@std@@QEAAXXZ
	?joinable@thread@std@@QEBA_NXZ
	?length@?$_Narrow_char_traits@DH@std@@SA_KQEBD@Z
	?length@?$_WChar_traits@_W@std@@SA_KPEB_W@Z
	?lerp@?$v_2d@M@olc@@QEBA?AU12@AEBU12@N@Z
	?load@?$_Atomic_storage@_N$00@std@@QEBA_NW4memory_order@2@@Z
	?mag@?$v_2d@M@olc@@QEBA@XZ
	?make_error_code@std@@YA?AVerror_code@1@W4errc@1@@Z
	?makeposix@ResourcePack@olc@@AEAA?AV?$basic_string@DU?$char_traits@D@std@@V?$allocator@D@2@@std@@AEBV34@@Z
	?max_load_factor@?$_Hash@V?$_Umap_traits@W4Key@olc@@V?$tuple@V?$basic_string@DU?$char_traits@D@std@@V?$allocator@D@2@@std@@V12@V12@V12@@std@@V?$_Uhash_compare@W4Key@olc@@U?$hash@W4Key@olc@@@std@@U?$equal_to@W4Key@olc@@@4@@4@V?$allocator@U?$pair@$$CBW4Key@olc@@V?$tuple@V?$basic_string@DU?$char_traits@D@std@@V?$allocator@D@2@@std@@V12@V12@V12@@std@@@std@@@4@$0A@@std@@@std@@QEBAMXZ
	?max_size@?$_Default_allocator_traits@V?$allocator@D@std@@@std@@SA_KAEBV?$allocator@D@2@@Z
	?max_size@?$_Default_allocator_traits@V?$allocator@E@std@@@std@@SA_KAEBV?$allocator@E@2@@Z
	?max_size@?$_Default_allocator_traits@V?$allocator@H@std@@@std@@SA_KAEBV?$allocator@H@2@@Z
	?max_size@?$_Default_allocator_traits@V?$allocator@M@std@@@std@@SA_KAEBV?$allocator@M@2@@Z
	?max_size@?$_Default_allocator_traits@V?$allocator@PEAVPGEX@olc@@@std@@@std@@SA_KAEBV?$allocator@PEAVPGEX@olc@@@2@@Z
	?max_size@?$_Default_allocator_traits@V?$allocator@PEAX@std@@@std@@SA_KAEBV?$allocator@PEAX@2@@Z
	?max_size@?$_Default_allocator_traits@V?$allocator@U?$_List_node@U?$pair@$$CBW4Key@olc@@V?$tuple@V?$basic_string@DU?$char_traits@D@std@@V?$allocator@D@2@@std@@V12@V12@V12@@std@@@std@@PEAX@std@@@std@@@std@@SA_KAEBV?$allocator@U?$_List_node@U?$pair@$$CBW4Key@olc@@V?$tuple@V?$basic_string@DU?$char_traits@D@std@@V?$allocator@D@2@@std@@V12@V12@V12@@std@@@std@@PEAX@std@@@2@@Z
	?max_size@?$_Default_allocator_traits@V?$allocator@U?$_List_node@V?$basic_string@DU?$char_traits@D@std@@V?$allocator@D@2@@std@@PEAX@std@@@std@@@std@@SA_KAEBV?$allocator@U?$_List_node@V?$basic_string@DU?$char_traits@D@std@@V?$allocator@D@2@@std@@PEAX@std@@@2@@Z
	?max_size@?$_Default_allocator_traits@V?$allocator@U?$_Tree_node@U?$pair@$$CBV?$basic_string@DU?$char_traits@D@std@@V?$allocator@D@2@@std@@UsResourceFile@ResourcePack@olc@@@std@@PEAX@std@@@std@@@std@@SA_KAEBV?$allocator@U?$_Tree_node@U?$pair@$$CBV?$basic_string@DU?$char_traits@D@std@@V?$allocator@D@2@@std@@UsResourceFile@ResourcePack@olc@@@std@@PEAX@std@@@2@@Z
	?max_size@?$_Default_allocator_traits@V?$allocator@U?$_Tree_node@U?$pair@$$CB_KW4Key@olc@@@std@@PEAX@std@@@std@@@std@@SA_KAEBV?$allocator@U?$_Tree_node@U?$pair@$$CB_KW4Key@olc@@@std@@PEAX@std@@@2@@Z
	?max_size@?$_Default_allocator_traits@V?$allocator@U?$v_2d@H@olc@@@std@@@std@@SA_KAEBV?$allocator@U?$v_2d@H@olc@@@2@@Z
	?max_size@?$_Default_allocator_traits@V?$allocator@U?$v_2d@M@olc@@@std@@@std@@SA_KAEBV?$allocator@U?$v_2d@M@olc@@@2@@Z
	?max_size@?$_Default_allocator_traits@V?$allocator@UDecalInstance@olc@@@std@@@std@@SA_KAEBV?$allocator@UDecalInstance@olc@@@2@@Z
	?max_size@?$_Default_allocator_traits@V?$allocator@UGPUTask@olc@@@std@@@std@@SA_KAEBV?$allocator@UGPUTask@olc@@@2@@Z
	?max_size@?$_Default_allocator_traits@V?$allocator@ULayerDesc@olc@@@std@@@std@@SA_KAEBV?$allocator@ULayerDesc@olc@@@2@@Z
	?max_size@?$_Default_allocator_traits@V?$allocator@UPixel@olc@@@std@@@std@@SA_KAEBV?$allocator@UPixel@olc@@@2@@Z
	?max_size@?$_Default_allocator_traits@V?$allocator@UVertex@GPUTask@olc@@@std@@@std@@SA_KAEBV?$allocator@UVertex@GPUTask@olc@@@2@@Z
	?max_size@?$_Default_allocator_traits@V?$allocator@V?$_List_unchecked_iterator@V?$_List_val@U?$_List_simple_types@U?$pair@$$CBW4Key@olc@@V?$tuple@V?$basic_string@DU?$char_traits@D@std@@V?$allocator@D@2@@std@@V12@V12@V12@@std@@@std@@@std@@@std@@@std@@@std@@@std@@SA_KAEBV?$allocator@V?$_List_unchecked_iterator@V?$_List_val@U?$_List_simple_types@U?$pair@$$CBW4Key@olc@@V?$tuple@V?$basic_string@DU?$char_traits@D@std@@V?$allocator@D@2@@std@@V12@V12@V12@@std@@@std@@@std@@@std@@@std@@@2@@Z
	?max_size@?$_Default_allocator_traits@V?$allocator@V?$basic_string@DU?$char_traits@D@std@@V?$allocator@D@2@@std@@@std@@@std@@SA_KAEBV?$allocator@V?$basic_string@DU?$char_traits@D@std@@V?$allocator@D@2@@std@@@2@@Z
	?max_size@?$_Default_allocator_traits@V?$allocator@_W@std@@@std@@SA_KAEBV?$allocator@_W@2@@Z
	?max_size@?$_Hash_vec@V?$allocator@V?$_List_unchecked_iterator@V?$_List_val@U?$_List_simple_types@U?$pair@$$CBW4Key@olc@@V?$tuple@V?$basic_string@DU?$char_traits@D@std@@V?$allocator@D@2@@std@@V12@V12@V12@@std@@@std@@@std@@@std@@@std@@@std@@@std@@QEBA_KXZ
	?max_size@?$_Tree@V?$_Tmap_traits@V?$basic_string@DU?$char_traits@D@std@@V?$allocator@D@2@@std@@UsResourceFile@ResourcePack@olc@@U?$less@V?$basic_string@DU?$char_traits@D@std@@V?$allocator@D@2@@std@@@2@V?$allocator@U?$pair@$$CBV?$basic_string@DU?$char_traits@D@std@@V?$allocator@D@2@@std@@UsResourceFile@ResourcePack@olc@@@std@@@2@$0A@@std@@@std@@QEBA_KXZ
	?max_size@?$_Tree@V?$_Tmap_traits@_KW4Key@olc@@U?$less@_K@std@@V?$allocator@U?$pair@$$CB_KW4Key@olc@@@std@@@4@$0A@@std@@@std@@QEBA_KXZ
	?max_size@?$basic_string@DU?$char_traits@D@std@@V?$allocator@D@2@@std@@QEBA_KXZ
	?max_size@?$basic_string@_WU?$char_traits@_W@std@@V?$allocator@_W@2@@std@@QEBA_KXZ
	?max_size@?$list@U?$pair@$$CBW4Key@olc@@V?$tuple@V?$basic_string@DU?$char_traits@D@std@@V?$allocator@D@2@@std@@V12@V12@V12@@std@@@std@@V?$allocator@U?$pair@$$CBW4Key@olc@@V?$tuple@V?$basic_string@DU?$char_traits@D@std@@V?$allocator@D@2@@std@@V12@V12@V12@@std@@@std@@@2@@std@@QEBA_KXZ
	?max_size@?$list@V?$basic_string@DU?$char_traits@D@std@@V?$allocator@D@2@@std@@V?$allocator@V?$basic_string@DU?$char_traits@D@std@@V?$allocator@D@2@@std@@@2@@std@@QEBA_KXZ
	?max_size@?$vector@DV?$allocator@D@std@@@std@@QEBA_KXZ
	?max_size@?$vector@EV?$allocator@E@std@@@std@@QEBA_KXZ
	?max_size@?$vector@HV?$allocator@H@std@@@std@@QEBA_KXZ
	?max_size@?$vector@MV?$allocator@M@std@@@std@@QEBA_KXZ
	?max_size@?$vector@PEAVPGEX@olc@@V?$allocator@PEAVPGEX@olc@@@std@@@std@@QEBA_KXZ
	?max_size@?$vector@PEAXV?$allocator@PEAX@std@@@std@@QEBA_KXZ
	?max_size@?$vector@U?$v_2d@H@olc@@V?$allocator@U?$v_2d@H@olc@@@std@@@std@@QEBA_KXZ
	?max_size@?$vector@U?$v_2d@M@olc@@V?$allocator@U?$v_2d@M@olc@@@std@@@std@@QEBA_KXZ
	?max_size@?$vector@UDecalInstance@olc@@V?$allocator@UDecalInstance@olc@@@std@@@std@@QEBA_KXZ
	?max_size@?$vector@UGPUTask@olc@@V?$allocator@UGPUTask@olc@@@std@@@std@@QEBA_KXZ
	?max_size@?$vector@ULayerDesc@olc@@V?$allocator@ULayerDesc@olc@@@std@@@std@@QEBA_KXZ
	?max_size@?$vector@UPixel@olc@@V?$allocator@UPixel@olc@@@std@@@std@@QEBA_KXZ
	?max_size@?$vector@UVertex@GPUTask@olc@@V?$allocator@UVertex@GPUTask@olc@@@std@@@std@@QEBA_KXZ
	?max_size@?$vector@V?$basic_string@DU?$char_traits@D@std@@V?$allocator@D@2@@std@@V?$allocator@V?$basic_string@DU?$char_traits@D@std@@V?$allocator@D@2@@std@@@2@@std@@QEBA_KXZ
	?message@_Generic_error_category@std@@UEBA?AV?$basic_string@DU?$char_traits@D@std@@V?$allocator@D@2@@2@H@Z
	?message@_System_error_category@std@@UEBA?AV?$basic_string@DU?$char_traits@D@std@@V?$allocator@D@2@@2@H@Z
	?message@error_code@std@@QEBA?AV?$basic_string@DU?$char_traits@D@std@@V?$allocator@D@2@@2@XZ
	?move@?$_Char_traits@DH@std@@SAPEADQEADQEBD_K@Z
	?name@_Generic_error_category@std@@UEBAPEBDXZ
	?name@_System_error_category@std@@UEBAPEBDXZ
	?native@path@filesystem@std@@QEBAAEBV?$basic_string@_WU?$char_traits@_W@std@@V?$allocator@_W@2@@3@XZ
	?not_eof@?$_Narrow_char_traits@DH@std@@SAHH@Z
	?now@steady_clock@chrono@std@@SA?AV?$time_point@Usteady_clock@chrono@std@@V?$duration@_JU?$ratio@$00$0DLJKMKAA@@std@@@23@@23@XZ
	?now@system_clock@chrono@std@@SA?AV?$time_point@Usystem_clock@chrono@std@@V?$duration@_JU?$ratio@$00$0JIJGIA@@std@@@23@@23@XZ
	?olc_ConfigureSystem@PixelGameEngine@olc@@UEAAXXZ
	?olc_ConstructFontSheet@PixelGameEngine@olc@@QEAAXXZ
	?olc_CoreUpdate@PixelGameEngine@olc@@QEAAXXZ
	?olc_DropFiles@PixelGameEngine@olc@@QEAAXHHAEBV?$vector@V?$basic_string@DU?$char_traits@D@std@@V?$allocator@D@2@@std@@V?$allocator@V?$basic_string@DU?$char_traits@D@std@@V?$allocator@D@2@@std@@@2@@std@@@Z
	?olc_IsRunning@PixelGameEngine@olc@@QEAA_NXZ
	?olc_PrepareEngine@PixelGameEngine@olc@@QEAAXXZ
	?olc_Reanimate@PixelGameEngine@olc@@QEAAXXZ
	?olc_Terminate@PixelGameEngine@olc@@QEAAXXZ
	?olc_UpdateKeyFocus@PixelGameEngine@olc@@QEAAX_N@Z
	?olc_UpdateKeyState@PixelGameEngine@olc@@QEAAXH_N@Z
	?olc_UpdateMouse@PixelGameEngine@olc@@QEAAXHH@Z
	?olc_UpdateMouseFocus@PixelGameEngine@olc@@QEAAX_N@Z
	?olc_UpdateMouseState@PixelGameEngine@olc@@QEAAXH_N@Z
	?olc_UpdateMouseWheel@PixelGameEngine@olc@@QEAAXH@Z
	?olc_UpdateViewport@PixelGameEngine@olc@@QEAAXXZ
	?olc_UpdateWindowPos@PixelGameEngine@olc@@QEAAXHH@Z
	?olc_UpdateWindowSize@PixelGameEngine@olc@@QEAAXHH@Z
	?olc_WindowEvent@Platform_Windows@olc@@SA_JPEAUHWND__@@I_K_J@Z
	?open@?$basic_filebuf@DU?$char_traits@D@std@@@std@@QEAAPEAV12@PEBDHH@Z
	?open@?$basic_ifstream@DU?$char_traits@D@std@@@std@@QEAAXAEBV?$basic_string@DU?$char_traits@D@std@@V?$allocator@D@2@@2@HH@Z
	?open@?$basic_ifstream@DU?$char_traits@D@std@@@std@@QEAAXPEBDHH@Z
	?overflow@?$basic_filebuf@DU?$char_traits@D@std@@@std@@MEAAHH@Z
	?overflow@?$basic_stringbuf@DU?$char_traits@D@std@@V?$allocator@D@2@@std@@MEAAHH@Z
	?pbackfail@?$basic_filebuf@DU?$char_traits@D@std@@@std@@MEAAHH@Z
	?pbackfail@?$basic_stringbuf@DU?$char_traits@D@std@@V?$allocator@D@2@@std@@MEAAHH@Z
	?permissions@file_status@filesystem@std@@QEAAXW4perms@23@@Z
	?pgex_Register@PixelGameEngine@olc@@QEAAXPEAVPGEX@2@@Z
	?pointer_to@?$pointer_traits@PEAD@std@@SAPEADAEAD@Z
	?pointer_to@?$pointer_traits@PEAV?$basic_string@DU?$char_traits@D@std@@V?$allocator@D@2@@std@@@std@@SAPEAV?$basic_string@DU?$char_traits@D@std@@V?$allocator@D@2@@2@AEAV32@@Z
	?push_back@?$basic_string@DU?$char_traits@D@std@@V?$allocator@D@2@@std@@QEAAXD@Z
	?push_back@?$list@V?$basic_string@DU?$char_traits@D@std@@V?$allocator@D@2@@std@@V?$allocator@V?$basic_string@DU?$char_traits@D@std@@V?$allocator@D@2@@std@@@2@@std@@QEAAXAEBV?$basic_string@DU?$char_traits@D@std@@V?$allocator@D@2@@2@@Z
	?push_back@?$vector@DV?$allocator@D@std@@@std@@QEAAX$$QEAD@Z
	?push_back@?$vector@HV?$allocator@H@std@@@std@@QEAAXAEBH@Z
	?push_back@?$vector@PEAVPGEX@olc@@V?$allocator@PEAVPGEX@olc@@@std@@@std@@QEAAXAEBQEAVPGEX@olc@@@Z
	?push_back@?$vector@U?$v_2d@H@olc@@V?$allocator@U?$v_2d@H@olc@@@std@@@std@@QEAAX$$QEAU?$v_2d@H@olc@@@Z
	?push_back@?$vector@UDecalInstance@olc@@V?$allocator@UDecalInstance@olc@@@std@@@std@@QEAAXAEBUDecalInstance@olc@@@Z
	?push_back@?$vector@UGPUTask@olc@@V?$allocator@UGPUTask@olc@@@std@@@std@@QEAAXAEBUGPUTask@olc@@@Z
	?push_back@?$vector@ULayerDesc@olc@@V?$allocator@ULayerDesc@olc@@@std@@@std@@QEAAX$$QEAULayerDesc@olc@@@Z
	?push_back@?$vector@V?$basic_string@DU?$char_traits@D@std@@V?$allocator@D@2@@std@@V?$allocator@V?$basic_string@DU?$char_traits@D@std@@V?$allocator@D@2@@std@@@2@@std@@QEAAX$$QEAV?$basic_string@DU?$char_traits@D@std@@V?$allocator@D@2@@2@@Z
	?rbegin@?$vector@ULayerDesc@olc@@V?$allocator@ULayerDesc@olc@@@std@@@std@@QEAA?AV?$reverse_iterator@V?$_Vector_iterator@V?$_Vector_val@U?$_Simple_types@ULayerDesc@olc@@@std@@@std@@@std@@@2@XZ
	?rdbuf@?$basic_stringstream@DU?$char_traits@D@std@@V?$allocator@D@2@@std@@QEBAPEAV?$basic_stringbuf@DU?$char_traits@D@std@@V?$allocator@D@2@@2@XZ
	?release@?$unique_ptr@V?$tuple@P8PixelGameEngine@olc@@EAAXXZPEAV12@@std@@U?$default_delete@V?$tuple@P8PixelGameEngine@olc@@EAAXXZPEAV12@@std@@@2@@std@@QEAAPEAV?$tuple@P8PixelGameEngine@olc@@EAAXXZPEAV12@@2@XZ
	?release@?$unique_ptr@VDecal@olc@@U?$default_delete@VDecal@olc@@@std@@@std@@QEAAPEAVDecal@olc@@XZ
	?release@?$unique_ptr@VImageLoader_GDIPlus@olc@@U?$default_delete@VImageLoader_GDIPlus@olc@@@std@@@std@@QEAAPEAVImageLoader_GDIPlus@olc@@XZ
	?release@?$unique_ptr@VMipsDisplay@@U?$default_delete@VMipsDisplay@@@std@@@std@@QEAAPEAVMipsDisplay@@XZ
	?release@?$unique_ptr@VPlatform_Windows@olc@@U?$default_delete@VPlatform_Windows@olc@@@std@@@std@@QEAAPEAVPlatform_Windows@olc@@XZ
	?release@?$unique_ptr@VRenderer_OGL10@olc@@U?$default_delete@VRenderer_OGL10@olc@@@std@@@std@@QEAAPEAVRenderer_OGL10@olc@@XZ
	?release@?$unique_ptr@VSprite@olc@@U?$default_delete@VSprite@olc@@@std@@@std@@QEAAPEAVSprite@olc@@XZ
	?release@?$unique_ptr@V_Facet_base@std@@U?$default_delete@V_Facet_base@std@@@2@@std@@QEAAPEAV_Facet_base@2@XZ
	?rend@?$vector@ULayerDesc@olc@@V?$allocator@ULayerDesc@olc@@@std@@@std@@QEAA?AV?$reverse_iterator@V?$_Vector_iterator@V?$_Vector_val@U?$_Simple_types@ULayerDesc@olc@@@std@@@std@@@std@@@2@XZ
	?reserve@?$basic_string@DU?$char_traits@D@std@@V?$allocator@D@2@@std@@QEAAX_K@Z
	?reset@?$unique_ptr@VDecal@olc@@U?$default_delete@VDecal@olc@@@std@@@std@@QEAAXPEAVDecal@olc@@@Z
	?reset@?$unique_ptr@VImageLoader@olc@@U?$default_delete@VImageLoader@olc@@@std@@@std@@QEAAXPEAVImageLoader@olc@@@Z
	?reset@?$unique_ptr@VMipsDisplay@@U?$default_delete@VMipsDisplay@@@std@@@std@@QEAAXPEAVMipsDisplay@@@Z
	?reset@?$unique_ptr@VPlatform@olc@@U?$default_delete@VPlatform@olc@@@std@@@std@@QEAAXPEAVPlatform@olc@@@Z
	?reset@?$unique_ptr@VRenderer@olc@@U?$default_delete@VRenderer@olc@@@std@@@std@@QEAAXPEAVRenderer@olc@@@Z
	?reset@?$unique_ptr@VSprite@olc@@U?$default_delete@VSprite@olc@@@std@@@std@@QEAAXPEAVSprite@olc@@@Z
	?resize@?$basic_string@DU?$char_traits@D@std@@V?$allocator@D@2@@std@@QEAAX_KD@Z
	?resize@?$basic_string@_WU?$char_traits@_W@std@@V?$allocator@_W@2@@std@@QEAAX_K_W@Z
	?resize@?$vector@DV?$allocator@D@std@@@std@@QEAAX_K@Z
	?resize@?$vector@MV?$allocator@M@std@@@std@@QEAAX_K@Z
	?resize@?$vector@U?$v_2d@M@olc@@V?$allocator@U?$v_2d@M@olc@@@std@@@std@@QEAAX_K@Z
	?resize@?$vector@UPixel@olc@@V?$allocator@UPixel@olc@@@std@@@std@@QEAAX_K@Z
	?resize@?$vector@UPixel@olc@@V?$allocator@UPixel@olc@@@std@@@std@@QEAAX_KAEBUPixel@olc@@@Z
	?resize@?$vector@UVertex@GPUTask@olc@@V?$allocator@UVertex@GPUTask@olc@@@std@@@std@@QEAAX_K@Z
	?resize@?$vector@V?$basic_string@DU?$char_traits@D@std@@V?$allocator@D@2@@std@@V?$allocator@V?$basic_string@DU?$char_traits@D@std@@V?$allocator@D@2@@std@@@2@@std@@QEAAX_K@Z
	?scramble@ResourcePack@olc@@AEAA?AV?$vector@DV?$allocator@D@std@@@std@@AEBV34@AEBV?$basic_string@DU?$char_traits@D@std@@V?$allocator@D@2@@4@@Z
	?seekoff@?$basic_filebuf@DU?$char_traits@D@std@@@std@@MEAA?AV?$fpos@U_Mbstatet@@@2@_JHH@Z
	?seekoff@?$basic_stringbuf@DU?$char_traits@D@std@@V?$allocator@D@2@@std@@MEAA?AV?$fpos@U_Mbstatet@@@2@_JHH@Z
	?seekpos@?$basic_filebuf@DU?$char_traits@D@std@@@std@@MEAA?AV?$fpos@U_Mbstatet@@@2@V32@H@Z
	?seekpos@?$basic_stringbuf@DU?$char_traits@D@std@@V?$allocator@D@2@@std@@MEAA?AV?$fpos@U_Mbstatet@@@2@V32@H@Z
	?select_on_container_copy_construction@?$_Default_allocator_traits@V?$allocator@D@std@@@std@@SA?AV?$allocator@D@2@AEBV32@@Z
	?select_on_container_copy_construction@?$_Default_allocator_traits@V?$allocator@M@std@@@std@@SA?AV?$allocator@M@2@AEBV32@@Z
	?select_on_container_copy_construction@?$_Default_allocator_traits@V?$allocator@U?$v_2d@M@olc@@@std@@@std@@SA?AV?$allocator@U?$v_2d@M@olc@@@2@AEBV32@@Z
	?select_on_container_copy_construction@?$_Default_allocator_traits@V?$allocator@UPixel@olc@@@std@@@std@@SA?AV?$allocator@UPixel@olc@@@2@AEBV32@@Z
	?select_on_container_copy_construction@?$_Default_allocator_traits@V?$allocator@UVertex@GPUTask@olc@@@std@@@std@@SA?AV?$allocator@UVertex@GPUTask@olc@@@2@AEBV32@@Z
	?select_on_container_copy_construction@?$_Default_allocator_traits@V?$allocator@_W@std@@@std@@SA?AV?$allocator@_W@2@AEBV32@@Z
	?setbuf@?$basic_filebuf@DU?$char_traits@D@std@@@std@@MEAAPEAV?$basic_streambuf@DU?$char_traits@D@std@@@2@PEAD_J@Z
	?sin@@YAMM@Z
	?size@?$_Hash_vec@V?$allocator@V?$_List_unchecked_iterator@V?$_List_val@U?$_List_simple_types@U?$pair@$$CBW4Key@olc@@V?$tuple@V?$basic_string@DU?$char_traits@D@std@@V?$allocator@D@2@@std@@V12@V12@V12@@std@@@std@@@std@@@std@@@std@@@std@@@std@@QEBA_KXZ
	?size@?$_Tree@V?$_Tmap_traits@V?$basic_string@DU?$char_traits@D@std@@V?$allocator@D@2@@std@@UsResourceFile@ResourcePack@olc@@U?$less@V?$basic_string@DU?$char_traits@D@std@@V?$allocator@D@2@@std@@@2@V?$allocator@U?$pair@$$CBV?$basic_string@DU?$char_traits@D@std@@V?$allocator@D@2@@std@@UsResourceFile@ResourcePack@olc@@@std@@@2@$0A@@std@@@std@@QEBA_KXZ
	?size@?$basic_string@DU?$char_traits@D@std@@V?$allocator@D@2@@std@@QEBA_KXZ
	?size@?$basic_string@_WU?$char_traits@_W@std@@V?$allocator@_W@2@@std@@QEBA_KXZ
	?size@?$basic_string_view@DU?$char_traits@D@std@@@std@@QEBA_KXZ
	?size@?$basic_string_view@_WU?$char_traits@_W@std@@@std@@QEBA_KXZ
	?size@?$initializer_list@M@std@@QEBA_KXZ
	?size@?$initializer_list@PEAX@std@@QEBA_KXZ
	?size@?$initializer_list@U?$v_2d@M@olc@@@std@@QEBA_KXZ
	?size@?$initializer_list@UPixel@olc@@@std@@QEBA_KXZ
	?size@?$initializer_list@UVertex@GPUTask@olc@@@std@@QEBA_KXZ
	?size@?$vector@DV?$allocator@D@std@@@std@@QEBA_KXZ
	?size@?$vector@U?$v_2d@M@olc@@V?$allocator@U?$v_2d@M@olc@@@std@@@std@@QEBA_KXZ
	?size@?$vector@ULayerDesc@olc@@V?$allocator@ULayerDesc@olc@@@std@@@std@@QEBA_KXZ
	?size@?$vector@UPixel@olc@@V?$allocator@UPixel@olc@@@std@@@std@@QEBA_KXZ
	?size@?$vector@UVertex@GPUTask@olc@@V?$allocator@UVertex@GPUTask@olc@@@std@@@std@@QEBA_KXZ
	?size@?$vector@V?$array@M$03@std@@V?$allocator@V?$array@M$03@std@@@2@@std@@QEBA_KXZ
	?size@?$vector@V?$basic_string@DU?$char_traits@D@std@@V?$allocator@D@2@@std@@V?$allocator@V?$basic_string@DU?$char_traits@D@std@@V?$allocator@D@2@@std@@@2@@std@@QEBA_KXZ
	?sqrt@@YAMM@Z
	?state@?$fpos@U_Mbstatet@@@std@@QEBA?AU_Mbstatet@@XZ
	?status@filesystem@std@@YA?AVfile_status@12@AEBVpath@12@AEAVerror_code@2@@Z
	?store@?$_Atomic_storage@_N$00@std@@QEAAX_N@Z
	?swap@?$function@$$A6A?AUPixel@olc@@HHAEBU12@0@Z@std@@QEAAXAEAV12@@Z
	?swap@?$function@$$A6AXXZ@std@@QEAAXAEAV12@@Z
	?swap@?$vector@UPixel@olc@@V?$allocator@UPixel@olc@@@std@@@std@@QEAAXAEAV12@@Z
	?sync@?$basic_filebuf@DU?$char_traits@D@std@@@std@@MEAAHXZ
	?system_category@std@@YAAEBVerror_category@1@XZ
	?time_since_epoch@?$time_point@Usteady_clock@chrono@std@@V?$duration@_JU?$ratio@$00$0DLJKMKAA@@std@@@23@@chrono@std@@QEBA?AV?$duration@_JU?$ratio@$00$0DLJKMKAA@@std@@@23@XZ
	?time_since_epoch@?$time_point@Usystem_clock@chrono@std@@V?$duration@_JU?$ratio@$00$0JIJGIA@@std@@@23@@chrono@std@@QEBA?AV?$duration@_JU?$ratio@$00$0JIJGIA@@std@@@23@XZ
	?to_char_type@?$_Narrow_char_traits@DH@std@@SADH@Z
	?to_int_type@?$_Narrow_char_traits@DH@std@@SAHD@Z
	?to_string@std@@YA?AV?$basic_string@DU?$char_traits@D@std@@V?$allocator@D@2@@1@H@Z
	?type@file_status@filesystem@std@@QEAAXW4file_type@23@@Z
	?type@file_status@filesystem@std@@QEBA?AW4file_type@23@XZ
	?uflow@?$basic_filebuf@DU?$char_traits@D@std@@@std@@MEAAHXZ
	?underflow@?$basic_filebuf@DU?$char_traits@D@std@@@std@@MEAAHXZ
	?underflow@?$basic_stringbuf@DU?$char_traits@D@std@@V?$allocator@D@2@@std@@MEAAHXZ
	?value@error_code@std@@QEBAHXZ
	?value@error_condition@std@@QEBAHXZ
	?what@exception@std@@UEBAPEBDXZ
	?what@filesystem_error@filesystem@std@@UEBAPEBDXZ
	?xsgetn@?$basic_filebuf@DU?$char_traits@D@std@@@std@@MEAA_JPEAD_J@Z
	?xsputn@?$basic_filebuf@DU?$char_traits@D@std@@@std@@MEAA_JPEBD_J@Z
	?zero@?$duration@_JU?$ratio@$00$0JIJGIA@@std@@@chrono@std@@SA?AV123@XZ
	?zero@?$duration_values@_J@chrono@std@@SA_JXZ
	__std_is_file_not_found
	handleSyscall
	wmemcpy
	wmemset
